ARM GAS  /tmp/ccW22bxd.s 			page 1


   1              		.cpu cortex-m3
   2              		.arch armv7-m
   3              		.fpu softvfp
   4              		.eabi_attribute 20, 1
   5              		.eabi_attribute 21, 1
   6              		.eabi_attribute 23, 3
   7              		.eabi_attribute 24, 1
   8              		.eabi_attribute 25, 1
   9              		.eabi_attribute 26, 1
  10              		.eabi_attribute 30, 6
  11              		.eabi_attribute 34, 1
  12              		.eabi_attribute 18, 4
  13              		.file	"stm32f1xx_hal_tim.c"
  14              		.text
  15              	.Ltext0:
  16              		.cfi_sections	.debug_frame
  17              		.file 1 "Drivers/STM32F1xx_HAL_Driver/Src/stm32f1xx_hal_tim.c"
  18              		.section	.text.HAL_TIM_Base_Init,"ax",%progbits
  19              		.align	1
  20              		.global	HAL_TIM_Base_Init
  21              		.syntax unified
  22              		.thumb
  23              		.thumb_func
  25              	HAL_TIM_Base_Init:
  26              	.LFB65:
   1:Drivers/STM32F1xx_HAL_Driver/Src/stm32f1xx_hal_tim.c **** /**
   2:Drivers/STM32F1xx_HAL_Driver/Src/stm32f1xx_hal_tim.c ****   ******************************************************************************
   3:Drivers/STM32F1xx_HAL_Driver/Src/stm32f1xx_hal_tim.c ****   * @file    stm32f1xx_hal_tim.c
   4:Drivers/STM32F1xx_HAL_Driver/Src/stm32f1xx_hal_tim.c ****   * @author  MCD Application Team
   5:Drivers/STM32F1xx_HAL_Driver/Src/stm32f1xx_hal_tim.c ****   * @brief   TIM HAL module driver.
   6:Drivers/STM32F1xx_HAL_Driver/Src/stm32f1xx_hal_tim.c ****   *          This file provides firmware functions to manage the following
   7:Drivers/STM32F1xx_HAL_Driver/Src/stm32f1xx_hal_tim.c ****   *          functionalities of the Timer (TIM) peripheral:
   8:Drivers/STM32F1xx_HAL_Driver/Src/stm32f1xx_hal_tim.c ****   *           + TIM Time Base Initialization
   9:Drivers/STM32F1xx_HAL_Driver/Src/stm32f1xx_hal_tim.c ****   *           + TIM Time Base Start
  10:Drivers/STM32F1xx_HAL_Driver/Src/stm32f1xx_hal_tim.c ****   *           + TIM Time Base Start Interruption
  11:Drivers/STM32F1xx_HAL_Driver/Src/stm32f1xx_hal_tim.c ****   *           + TIM Time Base Start DMA
  12:Drivers/STM32F1xx_HAL_Driver/Src/stm32f1xx_hal_tim.c ****   *           + TIM Output Compare/PWM Initialization
  13:Drivers/STM32F1xx_HAL_Driver/Src/stm32f1xx_hal_tim.c ****   *           + TIM Output Compare/PWM Channel Configuration
  14:Drivers/STM32F1xx_HAL_Driver/Src/stm32f1xx_hal_tim.c ****   *           + TIM Output Compare/PWM  Start
  15:Drivers/STM32F1xx_HAL_Driver/Src/stm32f1xx_hal_tim.c ****   *           + TIM Output Compare/PWM  Start Interruption
  16:Drivers/STM32F1xx_HAL_Driver/Src/stm32f1xx_hal_tim.c ****   *           + TIM Output Compare/PWM Start DMA
  17:Drivers/STM32F1xx_HAL_Driver/Src/stm32f1xx_hal_tim.c ****   *           + TIM Input Capture Initialization
  18:Drivers/STM32F1xx_HAL_Driver/Src/stm32f1xx_hal_tim.c ****   *           + TIM Input Capture Channel Configuration
  19:Drivers/STM32F1xx_HAL_Driver/Src/stm32f1xx_hal_tim.c ****   *           + TIM Input Capture Start
  20:Drivers/STM32F1xx_HAL_Driver/Src/stm32f1xx_hal_tim.c ****   *           + TIM Input Capture Start Interruption
  21:Drivers/STM32F1xx_HAL_Driver/Src/stm32f1xx_hal_tim.c ****   *           + TIM Input Capture Start DMA
  22:Drivers/STM32F1xx_HAL_Driver/Src/stm32f1xx_hal_tim.c ****   *           + TIM One Pulse Initialization
  23:Drivers/STM32F1xx_HAL_Driver/Src/stm32f1xx_hal_tim.c ****   *           + TIM One Pulse Channel Configuration
  24:Drivers/STM32F1xx_HAL_Driver/Src/stm32f1xx_hal_tim.c ****   *           + TIM One Pulse Start
  25:Drivers/STM32F1xx_HAL_Driver/Src/stm32f1xx_hal_tim.c ****   *           + TIM Encoder Interface Initialization
  26:Drivers/STM32F1xx_HAL_Driver/Src/stm32f1xx_hal_tim.c ****   *           + TIM Encoder Interface Start
  27:Drivers/STM32F1xx_HAL_Driver/Src/stm32f1xx_hal_tim.c ****   *           + TIM Encoder Interface Start Interruption
  28:Drivers/STM32F1xx_HAL_Driver/Src/stm32f1xx_hal_tim.c ****   *           + TIM Encoder Interface Start DMA
  29:Drivers/STM32F1xx_HAL_Driver/Src/stm32f1xx_hal_tim.c ****   *           + Commutation Event configuration with Interruption and DMA
  30:Drivers/STM32F1xx_HAL_Driver/Src/stm32f1xx_hal_tim.c ****   *           + TIM OCRef clear configuration
  31:Drivers/STM32F1xx_HAL_Driver/Src/stm32f1xx_hal_tim.c ****   *           + TIM External Clock configuration
  32:Drivers/STM32F1xx_HAL_Driver/Src/stm32f1xx_hal_tim.c ****   ******************************************************************************
ARM GAS  /tmp/ccW22bxd.s 			page 2


  33:Drivers/STM32F1xx_HAL_Driver/Src/stm32f1xx_hal_tim.c ****   * @attention
  34:Drivers/STM32F1xx_HAL_Driver/Src/stm32f1xx_hal_tim.c ****   *
  35:Drivers/STM32F1xx_HAL_Driver/Src/stm32f1xx_hal_tim.c ****   * Copyright (c) 2016 STMicroelectronics.
  36:Drivers/STM32F1xx_HAL_Driver/Src/stm32f1xx_hal_tim.c ****   * All rights reserved.
  37:Drivers/STM32F1xx_HAL_Driver/Src/stm32f1xx_hal_tim.c ****   *
  38:Drivers/STM32F1xx_HAL_Driver/Src/stm32f1xx_hal_tim.c ****   * This software is licensed under terms that can be found in the LICENSE file
  39:Drivers/STM32F1xx_HAL_Driver/Src/stm32f1xx_hal_tim.c ****   * in the root directory of this software component.
  40:Drivers/STM32F1xx_HAL_Driver/Src/stm32f1xx_hal_tim.c ****   * If no LICENSE file comes with this software, it is provided AS-IS.
  41:Drivers/STM32F1xx_HAL_Driver/Src/stm32f1xx_hal_tim.c ****   *
  42:Drivers/STM32F1xx_HAL_Driver/Src/stm32f1xx_hal_tim.c ****   ******************************************************************************
  43:Drivers/STM32F1xx_HAL_Driver/Src/stm32f1xx_hal_tim.c ****   @verbatim
  44:Drivers/STM32F1xx_HAL_Driver/Src/stm32f1xx_hal_tim.c ****   ==============================================================================
  45:Drivers/STM32F1xx_HAL_Driver/Src/stm32f1xx_hal_tim.c ****                       ##### TIMER Generic features #####
  46:Drivers/STM32F1xx_HAL_Driver/Src/stm32f1xx_hal_tim.c ****   ==============================================================================
  47:Drivers/STM32F1xx_HAL_Driver/Src/stm32f1xx_hal_tim.c ****   [..] The Timer features include:
  48:Drivers/STM32F1xx_HAL_Driver/Src/stm32f1xx_hal_tim.c ****        (#) 16-bit up, down, up/down auto-reload counter.
  49:Drivers/STM32F1xx_HAL_Driver/Src/stm32f1xx_hal_tim.c ****        (#) 16-bit programmable prescaler allowing dividing (also on the fly) the
  50:Drivers/STM32F1xx_HAL_Driver/Src/stm32f1xx_hal_tim.c ****            counter clock frequency either by any factor between 1 and 65536.
  51:Drivers/STM32F1xx_HAL_Driver/Src/stm32f1xx_hal_tim.c ****        (#) Up to 4 independent channels for:
  52:Drivers/STM32F1xx_HAL_Driver/Src/stm32f1xx_hal_tim.c ****            (++) Input Capture
  53:Drivers/STM32F1xx_HAL_Driver/Src/stm32f1xx_hal_tim.c ****            (++) Output Compare
  54:Drivers/STM32F1xx_HAL_Driver/Src/stm32f1xx_hal_tim.c ****            (++) PWM generation (Edge and Center-aligned Mode)
  55:Drivers/STM32F1xx_HAL_Driver/Src/stm32f1xx_hal_tim.c ****            (++) One-pulse mode output
  56:Drivers/STM32F1xx_HAL_Driver/Src/stm32f1xx_hal_tim.c ****        (#) Synchronization circuit to control the timer with external signals and to interconnect
  57:Drivers/STM32F1xx_HAL_Driver/Src/stm32f1xx_hal_tim.c ****             several timers together.
  58:Drivers/STM32F1xx_HAL_Driver/Src/stm32f1xx_hal_tim.c ****        (#) Supports incremental encoder for positioning purposes
  59:Drivers/STM32F1xx_HAL_Driver/Src/stm32f1xx_hal_tim.c **** 
  60:Drivers/STM32F1xx_HAL_Driver/Src/stm32f1xx_hal_tim.c ****             ##### How to use this driver #####
  61:Drivers/STM32F1xx_HAL_Driver/Src/stm32f1xx_hal_tim.c ****   ==============================================================================
  62:Drivers/STM32F1xx_HAL_Driver/Src/stm32f1xx_hal_tim.c ****     [..]
  63:Drivers/STM32F1xx_HAL_Driver/Src/stm32f1xx_hal_tim.c ****      (#) Initialize the TIM low level resources by implementing the following functions
  64:Drivers/STM32F1xx_HAL_Driver/Src/stm32f1xx_hal_tim.c ****          depending on the selected feature:
  65:Drivers/STM32F1xx_HAL_Driver/Src/stm32f1xx_hal_tim.c ****            (++) Time Base : HAL_TIM_Base_MspInit()
  66:Drivers/STM32F1xx_HAL_Driver/Src/stm32f1xx_hal_tim.c ****            (++) Input Capture : HAL_TIM_IC_MspInit()
  67:Drivers/STM32F1xx_HAL_Driver/Src/stm32f1xx_hal_tim.c ****            (++) Output Compare : HAL_TIM_OC_MspInit()
  68:Drivers/STM32F1xx_HAL_Driver/Src/stm32f1xx_hal_tim.c ****            (++) PWM generation : HAL_TIM_PWM_MspInit()
  69:Drivers/STM32F1xx_HAL_Driver/Src/stm32f1xx_hal_tim.c ****            (++) One-pulse mode output : HAL_TIM_OnePulse_MspInit()
  70:Drivers/STM32F1xx_HAL_Driver/Src/stm32f1xx_hal_tim.c ****            (++) Encoder mode output : HAL_TIM_Encoder_MspInit()
  71:Drivers/STM32F1xx_HAL_Driver/Src/stm32f1xx_hal_tim.c **** 
  72:Drivers/STM32F1xx_HAL_Driver/Src/stm32f1xx_hal_tim.c ****      (#) Initialize the TIM low level resources :
  73:Drivers/STM32F1xx_HAL_Driver/Src/stm32f1xx_hal_tim.c ****         (##) Enable the TIM interface clock using __HAL_RCC_TIMx_CLK_ENABLE();
  74:Drivers/STM32F1xx_HAL_Driver/Src/stm32f1xx_hal_tim.c ****         (##) TIM pins configuration
  75:Drivers/STM32F1xx_HAL_Driver/Src/stm32f1xx_hal_tim.c ****             (+++) Enable the clock for the TIM GPIOs using the following function:
  76:Drivers/STM32F1xx_HAL_Driver/Src/stm32f1xx_hal_tim.c ****              __HAL_RCC_GPIOx_CLK_ENABLE();
  77:Drivers/STM32F1xx_HAL_Driver/Src/stm32f1xx_hal_tim.c ****             (+++) Configure these TIM pins in Alternate function mode using HAL_GPIO_Init();
  78:Drivers/STM32F1xx_HAL_Driver/Src/stm32f1xx_hal_tim.c **** 
  79:Drivers/STM32F1xx_HAL_Driver/Src/stm32f1xx_hal_tim.c ****      (#) The external Clock can be configured, if needed (the default clock is the
  80:Drivers/STM32F1xx_HAL_Driver/Src/stm32f1xx_hal_tim.c ****          internal clock from the APBx), using the following function:
  81:Drivers/STM32F1xx_HAL_Driver/Src/stm32f1xx_hal_tim.c ****          HAL_TIM_ConfigClockSource, the clock configuration should be done before
  82:Drivers/STM32F1xx_HAL_Driver/Src/stm32f1xx_hal_tim.c ****          any start function.
  83:Drivers/STM32F1xx_HAL_Driver/Src/stm32f1xx_hal_tim.c **** 
  84:Drivers/STM32F1xx_HAL_Driver/Src/stm32f1xx_hal_tim.c ****      (#) Configure the TIM in the desired functioning mode using one of the
  85:Drivers/STM32F1xx_HAL_Driver/Src/stm32f1xx_hal_tim.c ****        Initialization function of this driver:
  86:Drivers/STM32F1xx_HAL_Driver/Src/stm32f1xx_hal_tim.c ****        (++) HAL_TIM_Base_Init: to use the Timer to generate a simple time base
  87:Drivers/STM32F1xx_HAL_Driver/Src/stm32f1xx_hal_tim.c ****        (++) HAL_TIM_OC_Init and HAL_TIM_OC_ConfigChannel: to use the Timer to generate an
  88:Drivers/STM32F1xx_HAL_Driver/Src/stm32f1xx_hal_tim.c ****             Output Compare signal.
  89:Drivers/STM32F1xx_HAL_Driver/Src/stm32f1xx_hal_tim.c ****        (++) HAL_TIM_PWM_Init and HAL_TIM_PWM_ConfigChannel: to use the Timer to generate a
ARM GAS  /tmp/ccW22bxd.s 			page 3


  90:Drivers/STM32F1xx_HAL_Driver/Src/stm32f1xx_hal_tim.c ****             PWM signal.
  91:Drivers/STM32F1xx_HAL_Driver/Src/stm32f1xx_hal_tim.c ****        (++) HAL_TIM_IC_Init and HAL_TIM_IC_ConfigChannel: to use the Timer to measure an
  92:Drivers/STM32F1xx_HAL_Driver/Src/stm32f1xx_hal_tim.c ****             external signal.
  93:Drivers/STM32F1xx_HAL_Driver/Src/stm32f1xx_hal_tim.c ****        (++) HAL_TIM_OnePulse_Init and HAL_TIM_OnePulse_ConfigChannel: to use the Timer
  94:Drivers/STM32F1xx_HAL_Driver/Src/stm32f1xx_hal_tim.c ****             in One Pulse Mode.
  95:Drivers/STM32F1xx_HAL_Driver/Src/stm32f1xx_hal_tim.c ****        (++) HAL_TIM_Encoder_Init: to use the Timer Encoder Interface.
  96:Drivers/STM32F1xx_HAL_Driver/Src/stm32f1xx_hal_tim.c **** 
  97:Drivers/STM32F1xx_HAL_Driver/Src/stm32f1xx_hal_tim.c ****      (#) Activate the TIM peripheral using one of the start functions depending from the feature us
  98:Drivers/STM32F1xx_HAL_Driver/Src/stm32f1xx_hal_tim.c ****            (++) Time Base : HAL_TIM_Base_Start(), HAL_TIM_Base_Start_DMA(), HAL_TIM_Base_Start_IT()
  99:Drivers/STM32F1xx_HAL_Driver/Src/stm32f1xx_hal_tim.c ****            (++) Input Capture :  HAL_TIM_IC_Start(), HAL_TIM_IC_Start_DMA(), HAL_TIM_IC_Start_IT()
 100:Drivers/STM32F1xx_HAL_Driver/Src/stm32f1xx_hal_tim.c ****            (++) Output Compare : HAL_TIM_OC_Start(), HAL_TIM_OC_Start_DMA(), HAL_TIM_OC_Start_IT()
 101:Drivers/STM32F1xx_HAL_Driver/Src/stm32f1xx_hal_tim.c ****            (++) PWM generation : HAL_TIM_PWM_Start(), HAL_TIM_PWM_Start_DMA(), HAL_TIM_PWM_Start_IT
 102:Drivers/STM32F1xx_HAL_Driver/Src/stm32f1xx_hal_tim.c ****            (++) One-pulse mode output : HAL_TIM_OnePulse_Start(), HAL_TIM_OnePulse_Start_IT()
 103:Drivers/STM32F1xx_HAL_Driver/Src/stm32f1xx_hal_tim.c ****            (++) Encoder mode output : HAL_TIM_Encoder_Start(), HAL_TIM_Encoder_Start_DMA(), HAL_TIM
 104:Drivers/STM32F1xx_HAL_Driver/Src/stm32f1xx_hal_tim.c **** 
 105:Drivers/STM32F1xx_HAL_Driver/Src/stm32f1xx_hal_tim.c ****      (#) The DMA Burst is managed with the two following functions:
 106:Drivers/STM32F1xx_HAL_Driver/Src/stm32f1xx_hal_tim.c ****          HAL_TIM_DMABurst_WriteStart()
 107:Drivers/STM32F1xx_HAL_Driver/Src/stm32f1xx_hal_tim.c ****          HAL_TIM_DMABurst_ReadStart()
 108:Drivers/STM32F1xx_HAL_Driver/Src/stm32f1xx_hal_tim.c **** 
 109:Drivers/STM32F1xx_HAL_Driver/Src/stm32f1xx_hal_tim.c ****     *** Callback registration ***
 110:Drivers/STM32F1xx_HAL_Driver/Src/stm32f1xx_hal_tim.c ****   =============================================
 111:Drivers/STM32F1xx_HAL_Driver/Src/stm32f1xx_hal_tim.c **** 
 112:Drivers/STM32F1xx_HAL_Driver/Src/stm32f1xx_hal_tim.c ****   [..]
 113:Drivers/STM32F1xx_HAL_Driver/Src/stm32f1xx_hal_tim.c ****   The compilation define  USE_HAL_TIM_REGISTER_CALLBACKS when set to 1
 114:Drivers/STM32F1xx_HAL_Driver/Src/stm32f1xx_hal_tim.c ****   allows the user to configure dynamically the driver callbacks.
 115:Drivers/STM32F1xx_HAL_Driver/Src/stm32f1xx_hal_tim.c **** 
 116:Drivers/STM32F1xx_HAL_Driver/Src/stm32f1xx_hal_tim.c ****   [..]
 117:Drivers/STM32F1xx_HAL_Driver/Src/stm32f1xx_hal_tim.c ****   Use Function HAL_TIM_RegisterCallback() to register a callback.
 118:Drivers/STM32F1xx_HAL_Driver/Src/stm32f1xx_hal_tim.c ****   HAL_TIM_RegisterCallback() takes as parameters the HAL peripheral handle,
 119:Drivers/STM32F1xx_HAL_Driver/Src/stm32f1xx_hal_tim.c ****   the Callback ID and a pointer to the user callback function.
 120:Drivers/STM32F1xx_HAL_Driver/Src/stm32f1xx_hal_tim.c **** 
 121:Drivers/STM32F1xx_HAL_Driver/Src/stm32f1xx_hal_tim.c ****   [..]
 122:Drivers/STM32F1xx_HAL_Driver/Src/stm32f1xx_hal_tim.c ****   Use function HAL_TIM_UnRegisterCallback() to reset a callback to the default
 123:Drivers/STM32F1xx_HAL_Driver/Src/stm32f1xx_hal_tim.c ****   weak function.
 124:Drivers/STM32F1xx_HAL_Driver/Src/stm32f1xx_hal_tim.c ****   HAL_TIM_UnRegisterCallback takes as parameters the HAL peripheral handle,
 125:Drivers/STM32F1xx_HAL_Driver/Src/stm32f1xx_hal_tim.c ****   and the Callback ID.
 126:Drivers/STM32F1xx_HAL_Driver/Src/stm32f1xx_hal_tim.c **** 
 127:Drivers/STM32F1xx_HAL_Driver/Src/stm32f1xx_hal_tim.c ****   [..]
 128:Drivers/STM32F1xx_HAL_Driver/Src/stm32f1xx_hal_tim.c ****   These functions allow to register/unregister following callbacks:
 129:Drivers/STM32F1xx_HAL_Driver/Src/stm32f1xx_hal_tim.c ****     (+) Base_MspInitCallback              : TIM Base Msp Init Callback.
 130:Drivers/STM32F1xx_HAL_Driver/Src/stm32f1xx_hal_tim.c ****     (+) Base_MspDeInitCallback            : TIM Base Msp DeInit Callback.
 131:Drivers/STM32F1xx_HAL_Driver/Src/stm32f1xx_hal_tim.c ****     (+) IC_MspInitCallback                : TIM IC Msp Init Callback.
 132:Drivers/STM32F1xx_HAL_Driver/Src/stm32f1xx_hal_tim.c ****     (+) IC_MspDeInitCallback              : TIM IC Msp DeInit Callback.
 133:Drivers/STM32F1xx_HAL_Driver/Src/stm32f1xx_hal_tim.c ****     (+) OC_MspInitCallback                : TIM OC Msp Init Callback.
 134:Drivers/STM32F1xx_HAL_Driver/Src/stm32f1xx_hal_tim.c ****     (+) OC_MspDeInitCallback              : TIM OC Msp DeInit Callback.
 135:Drivers/STM32F1xx_HAL_Driver/Src/stm32f1xx_hal_tim.c ****     (+) PWM_MspInitCallback               : TIM PWM Msp Init Callback.
 136:Drivers/STM32F1xx_HAL_Driver/Src/stm32f1xx_hal_tim.c ****     (+) PWM_MspDeInitCallback             : TIM PWM Msp DeInit Callback.
 137:Drivers/STM32F1xx_HAL_Driver/Src/stm32f1xx_hal_tim.c ****     (+) OnePulse_MspInitCallback          : TIM One Pulse Msp Init Callback.
 138:Drivers/STM32F1xx_HAL_Driver/Src/stm32f1xx_hal_tim.c ****     (+) OnePulse_MspDeInitCallback        : TIM One Pulse Msp DeInit Callback.
 139:Drivers/STM32F1xx_HAL_Driver/Src/stm32f1xx_hal_tim.c ****     (+) Encoder_MspInitCallback           : TIM Encoder Msp Init Callback.
 140:Drivers/STM32F1xx_HAL_Driver/Src/stm32f1xx_hal_tim.c ****     (+) Encoder_MspDeInitCallback         : TIM Encoder Msp DeInit Callback.
 141:Drivers/STM32F1xx_HAL_Driver/Src/stm32f1xx_hal_tim.c ****     (+) HallSensor_MspInitCallback        : TIM Hall Sensor Msp Init Callback.
 142:Drivers/STM32F1xx_HAL_Driver/Src/stm32f1xx_hal_tim.c ****     (+) HallSensor_MspDeInitCallback      : TIM Hall Sensor Msp DeInit Callback.
 143:Drivers/STM32F1xx_HAL_Driver/Src/stm32f1xx_hal_tim.c ****     (+) PeriodElapsedCallback             : TIM Period Elapsed Callback.
 144:Drivers/STM32F1xx_HAL_Driver/Src/stm32f1xx_hal_tim.c ****     (+) PeriodElapsedHalfCpltCallback     : TIM Period Elapsed half complete Callback.
 145:Drivers/STM32F1xx_HAL_Driver/Src/stm32f1xx_hal_tim.c ****     (+) TriggerCallback                   : TIM Trigger Callback.
 146:Drivers/STM32F1xx_HAL_Driver/Src/stm32f1xx_hal_tim.c ****     (+) TriggerHalfCpltCallback           : TIM Trigger half complete Callback.
ARM GAS  /tmp/ccW22bxd.s 			page 4


 147:Drivers/STM32F1xx_HAL_Driver/Src/stm32f1xx_hal_tim.c ****     (+) IC_CaptureCallback                : TIM Input Capture Callback.
 148:Drivers/STM32F1xx_HAL_Driver/Src/stm32f1xx_hal_tim.c ****     (+) IC_CaptureHalfCpltCallback        : TIM Input Capture half complete Callback.
 149:Drivers/STM32F1xx_HAL_Driver/Src/stm32f1xx_hal_tim.c ****     (+) OC_DelayElapsedCallback           : TIM Output Compare Delay Elapsed Callback.
 150:Drivers/STM32F1xx_HAL_Driver/Src/stm32f1xx_hal_tim.c ****     (+) PWM_PulseFinishedCallback         : TIM PWM Pulse Finished Callback.
 151:Drivers/STM32F1xx_HAL_Driver/Src/stm32f1xx_hal_tim.c ****     (+) PWM_PulseFinishedHalfCpltCallback : TIM PWM Pulse Finished half complete Callback.
 152:Drivers/STM32F1xx_HAL_Driver/Src/stm32f1xx_hal_tim.c ****     (+) ErrorCallback                     : TIM Error Callback.
 153:Drivers/STM32F1xx_HAL_Driver/Src/stm32f1xx_hal_tim.c ****     (+) CommutationCallback               : TIM Commutation Callback.
 154:Drivers/STM32F1xx_HAL_Driver/Src/stm32f1xx_hal_tim.c ****     (+) CommutationHalfCpltCallback       : TIM Commutation half complete Callback.
 155:Drivers/STM32F1xx_HAL_Driver/Src/stm32f1xx_hal_tim.c ****     (+) BreakCallback                     : TIM Break Callback.
 156:Drivers/STM32F1xx_HAL_Driver/Src/stm32f1xx_hal_tim.c **** 
 157:Drivers/STM32F1xx_HAL_Driver/Src/stm32f1xx_hal_tim.c ****   [..]
 158:Drivers/STM32F1xx_HAL_Driver/Src/stm32f1xx_hal_tim.c **** By default, after the Init and when the state is HAL_TIM_STATE_RESET
 159:Drivers/STM32F1xx_HAL_Driver/Src/stm32f1xx_hal_tim.c **** all interrupt callbacks are set to the corresponding weak functions:
 160:Drivers/STM32F1xx_HAL_Driver/Src/stm32f1xx_hal_tim.c ****   examples HAL_TIM_TriggerCallback(), HAL_TIM_ErrorCallback().
 161:Drivers/STM32F1xx_HAL_Driver/Src/stm32f1xx_hal_tim.c **** 
 162:Drivers/STM32F1xx_HAL_Driver/Src/stm32f1xx_hal_tim.c ****   [..]
 163:Drivers/STM32F1xx_HAL_Driver/Src/stm32f1xx_hal_tim.c ****   Exception done for MspInit and MspDeInit functions that are reset to the legacy weak
 164:Drivers/STM32F1xx_HAL_Driver/Src/stm32f1xx_hal_tim.c ****   functionalities in the Init / DeInit only when these callbacks are null
 165:Drivers/STM32F1xx_HAL_Driver/Src/stm32f1xx_hal_tim.c ****   (not registered beforehand). If not, MspInit or MspDeInit are not null, the Init / DeInit
 166:Drivers/STM32F1xx_HAL_Driver/Src/stm32f1xx_hal_tim.c ****     keep and use the user MspInit / MspDeInit callbacks(registered beforehand)
 167:Drivers/STM32F1xx_HAL_Driver/Src/stm32f1xx_hal_tim.c **** 
 168:Drivers/STM32F1xx_HAL_Driver/Src/stm32f1xx_hal_tim.c ****   [..]
 169:Drivers/STM32F1xx_HAL_Driver/Src/stm32f1xx_hal_tim.c ****     Callbacks can be registered / unregistered in HAL_TIM_STATE_READY state only.
 170:Drivers/STM32F1xx_HAL_Driver/Src/stm32f1xx_hal_tim.c ****     Exception done MspInit / MspDeInit that can be registered / unregistered
 171:Drivers/STM32F1xx_HAL_Driver/Src/stm32f1xx_hal_tim.c ****     in HAL_TIM_STATE_READY or HAL_TIM_STATE_RESET state,
 172:Drivers/STM32F1xx_HAL_Driver/Src/stm32f1xx_hal_tim.c ****     thus registered(user) MspInit / DeInit callbacks can be used during the Init / DeInit.
 173:Drivers/STM32F1xx_HAL_Driver/Src/stm32f1xx_hal_tim.c ****   In that case first register the MspInit/MspDeInit user callbacks
 174:Drivers/STM32F1xx_HAL_Driver/Src/stm32f1xx_hal_tim.c ****       using HAL_TIM_RegisterCallback() before calling DeInit or Init function.
 175:Drivers/STM32F1xx_HAL_Driver/Src/stm32f1xx_hal_tim.c **** 
 176:Drivers/STM32F1xx_HAL_Driver/Src/stm32f1xx_hal_tim.c ****   [..]
 177:Drivers/STM32F1xx_HAL_Driver/Src/stm32f1xx_hal_tim.c ****       When The compilation define USE_HAL_TIM_REGISTER_CALLBACKS is set to 0 or
 178:Drivers/STM32F1xx_HAL_Driver/Src/stm32f1xx_hal_tim.c ****       not defined, the callback registration feature is not available and all callbacks
 179:Drivers/STM32F1xx_HAL_Driver/Src/stm32f1xx_hal_tim.c ****       are set to the corresponding weak functions.
 180:Drivers/STM32F1xx_HAL_Driver/Src/stm32f1xx_hal_tim.c **** 
 181:Drivers/STM32F1xx_HAL_Driver/Src/stm32f1xx_hal_tim.c ****   @endverbatim
 182:Drivers/STM32F1xx_HAL_Driver/Src/stm32f1xx_hal_tim.c ****   ******************************************************************************
 183:Drivers/STM32F1xx_HAL_Driver/Src/stm32f1xx_hal_tim.c ****   */
 184:Drivers/STM32F1xx_HAL_Driver/Src/stm32f1xx_hal_tim.c **** 
 185:Drivers/STM32F1xx_HAL_Driver/Src/stm32f1xx_hal_tim.c **** /* Includes ------------------------------------------------------------------*/
 186:Drivers/STM32F1xx_HAL_Driver/Src/stm32f1xx_hal_tim.c **** #include "stm32f1xx_hal.h"
 187:Drivers/STM32F1xx_HAL_Driver/Src/stm32f1xx_hal_tim.c **** 
 188:Drivers/STM32F1xx_HAL_Driver/Src/stm32f1xx_hal_tim.c **** /** @addtogroup STM32F1xx_HAL_Driver
 189:Drivers/STM32F1xx_HAL_Driver/Src/stm32f1xx_hal_tim.c ****   * @{
 190:Drivers/STM32F1xx_HAL_Driver/Src/stm32f1xx_hal_tim.c ****   */
 191:Drivers/STM32F1xx_HAL_Driver/Src/stm32f1xx_hal_tim.c **** 
 192:Drivers/STM32F1xx_HAL_Driver/Src/stm32f1xx_hal_tim.c **** /** @defgroup TIM TIM
 193:Drivers/STM32F1xx_HAL_Driver/Src/stm32f1xx_hal_tim.c ****   * @brief TIM HAL module driver
 194:Drivers/STM32F1xx_HAL_Driver/Src/stm32f1xx_hal_tim.c ****   * @{
 195:Drivers/STM32F1xx_HAL_Driver/Src/stm32f1xx_hal_tim.c ****   */
 196:Drivers/STM32F1xx_HAL_Driver/Src/stm32f1xx_hal_tim.c **** 
 197:Drivers/STM32F1xx_HAL_Driver/Src/stm32f1xx_hal_tim.c **** #ifdef HAL_TIM_MODULE_ENABLED
 198:Drivers/STM32F1xx_HAL_Driver/Src/stm32f1xx_hal_tim.c **** 
 199:Drivers/STM32F1xx_HAL_Driver/Src/stm32f1xx_hal_tim.c **** /* Private typedef -----------------------------------------------------------*/
 200:Drivers/STM32F1xx_HAL_Driver/Src/stm32f1xx_hal_tim.c **** /* Private define ------------------------------------------------------------*/
 201:Drivers/STM32F1xx_HAL_Driver/Src/stm32f1xx_hal_tim.c **** /* Private macros ------------------------------------------------------------*/
 202:Drivers/STM32F1xx_HAL_Driver/Src/stm32f1xx_hal_tim.c **** /* Private variables ---------------------------------------------------------*/
 203:Drivers/STM32F1xx_HAL_Driver/Src/stm32f1xx_hal_tim.c **** /* Private function prototypes -----------------------------------------------*/
ARM GAS  /tmp/ccW22bxd.s 			page 5


 204:Drivers/STM32F1xx_HAL_Driver/Src/stm32f1xx_hal_tim.c **** /** @addtogroup TIM_Private_Functions
 205:Drivers/STM32F1xx_HAL_Driver/Src/stm32f1xx_hal_tim.c ****   * @{
 206:Drivers/STM32F1xx_HAL_Driver/Src/stm32f1xx_hal_tim.c ****   */
 207:Drivers/STM32F1xx_HAL_Driver/Src/stm32f1xx_hal_tim.c **** static void TIM_OC1_SetConfig(TIM_TypeDef *TIMx, const TIM_OC_InitTypeDef *OC_Config);
 208:Drivers/STM32F1xx_HAL_Driver/Src/stm32f1xx_hal_tim.c **** static void TIM_OC3_SetConfig(TIM_TypeDef *TIMx, const TIM_OC_InitTypeDef *OC_Config);
 209:Drivers/STM32F1xx_HAL_Driver/Src/stm32f1xx_hal_tim.c **** static void TIM_OC4_SetConfig(TIM_TypeDef *TIMx, const TIM_OC_InitTypeDef *OC_Config);
 210:Drivers/STM32F1xx_HAL_Driver/Src/stm32f1xx_hal_tim.c **** static void TIM_TI1_ConfigInputStage(TIM_TypeDef *TIMx, uint32_t TIM_ICPolarity, uint32_t TIM_ICFil
 211:Drivers/STM32F1xx_HAL_Driver/Src/stm32f1xx_hal_tim.c **** static void TIM_TI2_SetConfig(TIM_TypeDef *TIMx, uint32_t TIM_ICPolarity, uint32_t TIM_ICSelection,
 212:Drivers/STM32F1xx_HAL_Driver/Src/stm32f1xx_hal_tim.c ****                               uint32_t TIM_ICFilter);
 213:Drivers/STM32F1xx_HAL_Driver/Src/stm32f1xx_hal_tim.c **** static void TIM_TI2_ConfigInputStage(TIM_TypeDef *TIMx, uint32_t TIM_ICPolarity, uint32_t TIM_ICFil
 214:Drivers/STM32F1xx_HAL_Driver/Src/stm32f1xx_hal_tim.c **** static void TIM_TI3_SetConfig(TIM_TypeDef *TIMx, uint32_t TIM_ICPolarity, uint32_t TIM_ICSelection,
 215:Drivers/STM32F1xx_HAL_Driver/Src/stm32f1xx_hal_tim.c ****                               uint32_t TIM_ICFilter);
 216:Drivers/STM32F1xx_HAL_Driver/Src/stm32f1xx_hal_tim.c **** static void TIM_TI4_SetConfig(TIM_TypeDef *TIMx, uint32_t TIM_ICPolarity, uint32_t TIM_ICSelection,
 217:Drivers/STM32F1xx_HAL_Driver/Src/stm32f1xx_hal_tim.c ****                               uint32_t TIM_ICFilter);
 218:Drivers/STM32F1xx_HAL_Driver/Src/stm32f1xx_hal_tim.c **** static void TIM_ITRx_SetConfig(TIM_TypeDef *TIMx, uint32_t InputTriggerSource);
 219:Drivers/STM32F1xx_HAL_Driver/Src/stm32f1xx_hal_tim.c **** static void TIM_DMAPeriodElapsedCplt(DMA_HandleTypeDef *hdma);
 220:Drivers/STM32F1xx_HAL_Driver/Src/stm32f1xx_hal_tim.c **** static void TIM_DMAPeriodElapsedHalfCplt(DMA_HandleTypeDef *hdma);
 221:Drivers/STM32F1xx_HAL_Driver/Src/stm32f1xx_hal_tim.c **** static void TIM_DMADelayPulseCplt(DMA_HandleTypeDef *hdma);
 222:Drivers/STM32F1xx_HAL_Driver/Src/stm32f1xx_hal_tim.c **** static void TIM_DMATriggerCplt(DMA_HandleTypeDef *hdma);
 223:Drivers/STM32F1xx_HAL_Driver/Src/stm32f1xx_hal_tim.c **** static void TIM_DMATriggerHalfCplt(DMA_HandleTypeDef *hdma);
 224:Drivers/STM32F1xx_HAL_Driver/Src/stm32f1xx_hal_tim.c **** static HAL_StatusTypeDef TIM_SlaveTimer_SetConfig(TIM_HandleTypeDef *htim,
 225:Drivers/STM32F1xx_HAL_Driver/Src/stm32f1xx_hal_tim.c ****                                                   const TIM_SlaveConfigTypeDef *sSlaveConfig);
 226:Drivers/STM32F1xx_HAL_Driver/Src/stm32f1xx_hal_tim.c **** /**
 227:Drivers/STM32F1xx_HAL_Driver/Src/stm32f1xx_hal_tim.c ****   * @}
 228:Drivers/STM32F1xx_HAL_Driver/Src/stm32f1xx_hal_tim.c ****   */
 229:Drivers/STM32F1xx_HAL_Driver/Src/stm32f1xx_hal_tim.c **** /* Exported functions --------------------------------------------------------*/
 230:Drivers/STM32F1xx_HAL_Driver/Src/stm32f1xx_hal_tim.c **** 
 231:Drivers/STM32F1xx_HAL_Driver/Src/stm32f1xx_hal_tim.c **** /** @defgroup TIM_Exported_Functions TIM Exported Functions
 232:Drivers/STM32F1xx_HAL_Driver/Src/stm32f1xx_hal_tim.c ****   * @{
 233:Drivers/STM32F1xx_HAL_Driver/Src/stm32f1xx_hal_tim.c ****   */
 234:Drivers/STM32F1xx_HAL_Driver/Src/stm32f1xx_hal_tim.c **** 
 235:Drivers/STM32F1xx_HAL_Driver/Src/stm32f1xx_hal_tim.c **** /** @defgroup TIM_Exported_Functions_Group1 TIM Time Base functions
 236:Drivers/STM32F1xx_HAL_Driver/Src/stm32f1xx_hal_tim.c ****   *  @brief    Time Base functions
 237:Drivers/STM32F1xx_HAL_Driver/Src/stm32f1xx_hal_tim.c ****   *
 238:Drivers/STM32F1xx_HAL_Driver/Src/stm32f1xx_hal_tim.c **** @verbatim
 239:Drivers/STM32F1xx_HAL_Driver/Src/stm32f1xx_hal_tim.c ****   ==============================================================================
 240:Drivers/STM32F1xx_HAL_Driver/Src/stm32f1xx_hal_tim.c ****               ##### Time Base functions #####
 241:Drivers/STM32F1xx_HAL_Driver/Src/stm32f1xx_hal_tim.c ****   ==============================================================================
 242:Drivers/STM32F1xx_HAL_Driver/Src/stm32f1xx_hal_tim.c ****   [..]
 243:Drivers/STM32F1xx_HAL_Driver/Src/stm32f1xx_hal_tim.c ****     This section provides functions allowing to:
 244:Drivers/STM32F1xx_HAL_Driver/Src/stm32f1xx_hal_tim.c ****     (+) Initialize and configure the TIM base.
 245:Drivers/STM32F1xx_HAL_Driver/Src/stm32f1xx_hal_tim.c ****     (+) De-initialize the TIM base.
 246:Drivers/STM32F1xx_HAL_Driver/Src/stm32f1xx_hal_tim.c ****     (+) Start the Time Base.
 247:Drivers/STM32F1xx_HAL_Driver/Src/stm32f1xx_hal_tim.c ****     (+) Stop the Time Base.
 248:Drivers/STM32F1xx_HAL_Driver/Src/stm32f1xx_hal_tim.c ****     (+) Start the Time Base and enable interrupt.
 249:Drivers/STM32F1xx_HAL_Driver/Src/stm32f1xx_hal_tim.c ****     (+) Stop the Time Base and disable interrupt.
 250:Drivers/STM32F1xx_HAL_Driver/Src/stm32f1xx_hal_tim.c ****     (+) Start the Time Base and enable DMA transfer.
 251:Drivers/STM32F1xx_HAL_Driver/Src/stm32f1xx_hal_tim.c ****     (+) Stop the Time Base and disable DMA transfer.
 252:Drivers/STM32F1xx_HAL_Driver/Src/stm32f1xx_hal_tim.c **** 
 253:Drivers/STM32F1xx_HAL_Driver/Src/stm32f1xx_hal_tim.c **** @endverbatim
 254:Drivers/STM32F1xx_HAL_Driver/Src/stm32f1xx_hal_tim.c ****   * @{
 255:Drivers/STM32F1xx_HAL_Driver/Src/stm32f1xx_hal_tim.c ****   */
 256:Drivers/STM32F1xx_HAL_Driver/Src/stm32f1xx_hal_tim.c **** /**
 257:Drivers/STM32F1xx_HAL_Driver/Src/stm32f1xx_hal_tim.c ****   * @brief  Initializes the TIM Time base Unit according to the specified
 258:Drivers/STM32F1xx_HAL_Driver/Src/stm32f1xx_hal_tim.c ****   *         parameters in the TIM_HandleTypeDef and initialize the associated handle.
 259:Drivers/STM32F1xx_HAL_Driver/Src/stm32f1xx_hal_tim.c ****   * @note   Switching from Center Aligned counter mode to Edge counter mode (or reverse)
 260:Drivers/STM32F1xx_HAL_Driver/Src/stm32f1xx_hal_tim.c ****   *         requires a timer reset to avoid unexpected direction
ARM GAS  /tmp/ccW22bxd.s 			page 6


 261:Drivers/STM32F1xx_HAL_Driver/Src/stm32f1xx_hal_tim.c ****   *         due to DIR bit readonly in center aligned mode.
 262:Drivers/STM32F1xx_HAL_Driver/Src/stm32f1xx_hal_tim.c ****   *         Ex: call @ref HAL_TIM_Base_DeInit() before HAL_TIM_Base_Init()
 263:Drivers/STM32F1xx_HAL_Driver/Src/stm32f1xx_hal_tim.c ****   * @param  htim TIM Base handle
 264:Drivers/STM32F1xx_HAL_Driver/Src/stm32f1xx_hal_tim.c ****   * @retval HAL status
 265:Drivers/STM32F1xx_HAL_Driver/Src/stm32f1xx_hal_tim.c ****   */
 266:Drivers/STM32F1xx_HAL_Driver/Src/stm32f1xx_hal_tim.c **** HAL_StatusTypeDef HAL_TIM_Base_Init(TIM_HandleTypeDef *htim)
 267:Drivers/STM32F1xx_HAL_Driver/Src/stm32f1xx_hal_tim.c **** {
  27              		.loc 1 267 1
  28              		.cfi_startproc
  29              		@ args = 0, pretend = 0, frame = 8
  30              		@ frame_needed = 1, uses_anonymous_args = 0
  31 0000 80B5     		push	{r7, lr}
  32              	.LCFI0:
  33              		.cfi_def_cfa_offset 8
  34              		.cfi_offset 7, -8
  35              		.cfi_offset 14, -4
  36 0002 82B0     		sub	sp, sp, #8
  37              	.LCFI1:
  38              		.cfi_def_cfa_offset 16
  39 0004 00AF     		add	r7, sp, #0
  40              	.LCFI2:
  41              		.cfi_def_cfa_register 7
  42 0006 7860     		str	r0, [r7, #4]
 268:Drivers/STM32F1xx_HAL_Driver/Src/stm32f1xx_hal_tim.c ****   /* Check the TIM handle allocation */
 269:Drivers/STM32F1xx_HAL_Driver/Src/stm32f1xx_hal_tim.c ****   if (htim == NULL)
  43              		.loc 1 269 6
  44 0008 7B68     		ldr	r3, [r7, #4]
  45 000a 002B     		cmp	r3, #0
  46 000c 01D1     		bne	.L2
 270:Drivers/STM32F1xx_HAL_Driver/Src/stm32f1xx_hal_tim.c ****   {
 271:Drivers/STM32F1xx_HAL_Driver/Src/stm32f1xx_hal_tim.c ****     return HAL_ERROR;
  47              		.loc 1 271 12
  48 000e 0123     		movs	r3, #1
  49 0010 41E0     		b	.L3
  50              	.L2:
 272:Drivers/STM32F1xx_HAL_Driver/Src/stm32f1xx_hal_tim.c ****   }
 273:Drivers/STM32F1xx_HAL_Driver/Src/stm32f1xx_hal_tim.c **** 
 274:Drivers/STM32F1xx_HAL_Driver/Src/stm32f1xx_hal_tim.c ****   /* Check the parameters */
 275:Drivers/STM32F1xx_HAL_Driver/Src/stm32f1xx_hal_tim.c ****   assert_param(IS_TIM_INSTANCE(htim->Instance));
 276:Drivers/STM32F1xx_HAL_Driver/Src/stm32f1xx_hal_tim.c ****   assert_param(IS_TIM_COUNTER_MODE(htim->Init.CounterMode));
 277:Drivers/STM32F1xx_HAL_Driver/Src/stm32f1xx_hal_tim.c ****   assert_param(IS_TIM_CLOCKDIVISION_DIV(htim->Init.ClockDivision));
 278:Drivers/STM32F1xx_HAL_Driver/Src/stm32f1xx_hal_tim.c ****   assert_param(IS_TIM_PERIOD(htim->Init.Period));
 279:Drivers/STM32F1xx_HAL_Driver/Src/stm32f1xx_hal_tim.c ****   assert_param(IS_TIM_AUTORELOAD_PRELOAD(htim->Init.AutoReloadPreload));
 280:Drivers/STM32F1xx_HAL_Driver/Src/stm32f1xx_hal_tim.c **** 
 281:Drivers/STM32F1xx_HAL_Driver/Src/stm32f1xx_hal_tim.c ****   if (htim->State == HAL_TIM_STATE_RESET)
  51              		.loc 1 281 11
  52 0012 7B68     		ldr	r3, [r7, #4]
  53 0014 93F83D30 		ldrb	r3, [r3, #61]
  54 0018 DBB2     		uxtb	r3, r3
  55              		.loc 1 281 6
  56 001a 002B     		cmp	r3, #0
  57 001c 06D1     		bne	.L4
 282:Drivers/STM32F1xx_HAL_Driver/Src/stm32f1xx_hal_tim.c ****   {
 283:Drivers/STM32F1xx_HAL_Driver/Src/stm32f1xx_hal_tim.c ****     /* Allocate lock resource and initialize it */
 284:Drivers/STM32F1xx_HAL_Driver/Src/stm32f1xx_hal_tim.c ****     htim->Lock = HAL_UNLOCKED;
  58              		.loc 1 284 16
  59 001e 7B68     		ldr	r3, [r7, #4]
ARM GAS  /tmp/ccW22bxd.s 			page 7


  60 0020 0022     		movs	r2, #0
  61 0022 83F83C20 		strb	r2, [r3, #60]
 285:Drivers/STM32F1xx_HAL_Driver/Src/stm32f1xx_hal_tim.c **** 
 286:Drivers/STM32F1xx_HAL_Driver/Src/stm32f1xx_hal_tim.c **** #if (USE_HAL_TIM_REGISTER_CALLBACKS == 1)
 287:Drivers/STM32F1xx_HAL_Driver/Src/stm32f1xx_hal_tim.c ****     /* Reset interrupt callbacks to legacy weak callbacks */
 288:Drivers/STM32F1xx_HAL_Driver/Src/stm32f1xx_hal_tim.c ****     TIM_ResetCallback(htim);
 289:Drivers/STM32F1xx_HAL_Driver/Src/stm32f1xx_hal_tim.c **** 
 290:Drivers/STM32F1xx_HAL_Driver/Src/stm32f1xx_hal_tim.c ****     if (htim->Base_MspInitCallback == NULL)
 291:Drivers/STM32F1xx_HAL_Driver/Src/stm32f1xx_hal_tim.c ****     {
 292:Drivers/STM32F1xx_HAL_Driver/Src/stm32f1xx_hal_tim.c ****       htim->Base_MspInitCallback = HAL_TIM_Base_MspInit;
 293:Drivers/STM32F1xx_HAL_Driver/Src/stm32f1xx_hal_tim.c ****     }
 294:Drivers/STM32F1xx_HAL_Driver/Src/stm32f1xx_hal_tim.c ****     /* Init the low level hardware : GPIO, CLOCK, NVIC */
 295:Drivers/STM32F1xx_HAL_Driver/Src/stm32f1xx_hal_tim.c ****     htim->Base_MspInitCallback(htim);
 296:Drivers/STM32F1xx_HAL_Driver/Src/stm32f1xx_hal_tim.c **** #else
 297:Drivers/STM32F1xx_HAL_Driver/Src/stm32f1xx_hal_tim.c ****     /* Init the low level hardware : GPIO, CLOCK, NVIC */
 298:Drivers/STM32F1xx_HAL_Driver/Src/stm32f1xx_hal_tim.c ****     HAL_TIM_Base_MspInit(htim);
  62              		.loc 1 298 5
  63 0026 7868     		ldr	r0, [r7, #4]
  64 0028 FFF7FEFF 		bl	HAL_TIM_Base_MspInit
  65              	.L4:
 299:Drivers/STM32F1xx_HAL_Driver/Src/stm32f1xx_hal_tim.c **** #endif /* USE_HAL_TIM_REGISTER_CALLBACKS */
 300:Drivers/STM32F1xx_HAL_Driver/Src/stm32f1xx_hal_tim.c ****   }
 301:Drivers/STM32F1xx_HAL_Driver/Src/stm32f1xx_hal_tim.c **** 
 302:Drivers/STM32F1xx_HAL_Driver/Src/stm32f1xx_hal_tim.c ****   /* Set the TIM state */
 303:Drivers/STM32F1xx_HAL_Driver/Src/stm32f1xx_hal_tim.c ****   htim->State = HAL_TIM_STATE_BUSY;
  66              		.loc 1 303 15
  67 002c 7B68     		ldr	r3, [r7, #4]
  68 002e 0222     		movs	r2, #2
  69 0030 83F83D20 		strb	r2, [r3, #61]
 304:Drivers/STM32F1xx_HAL_Driver/Src/stm32f1xx_hal_tim.c **** 
 305:Drivers/STM32F1xx_HAL_Driver/Src/stm32f1xx_hal_tim.c ****   /* Set the Time Base configuration */
 306:Drivers/STM32F1xx_HAL_Driver/Src/stm32f1xx_hal_tim.c ****   TIM_Base_SetConfig(htim->Instance, &htim->Init);
  70              		.loc 1 306 3
  71 0034 7B68     		ldr	r3, [r7, #4]
  72 0036 1A68     		ldr	r2, [r3]
  73              		.loc 1 306 38
  74 0038 7B68     		ldr	r3, [r7, #4]
  75 003a 0433     		adds	r3, r3, #4
  76              		.loc 1 306 3
  77 003c 1946     		mov	r1, r3
  78 003e 1046     		mov	r0, r2
  79 0040 FFF7FEFF 		bl	TIM_Base_SetConfig
 307:Drivers/STM32F1xx_HAL_Driver/Src/stm32f1xx_hal_tim.c **** 
 308:Drivers/STM32F1xx_HAL_Driver/Src/stm32f1xx_hal_tim.c ****   /* Initialize the DMA burst operation state */
 309:Drivers/STM32F1xx_HAL_Driver/Src/stm32f1xx_hal_tim.c ****   htim->DMABurstState = HAL_DMA_BURST_STATE_READY;
  80              		.loc 1 309 23
  81 0044 7B68     		ldr	r3, [r7, #4]
  82 0046 0122     		movs	r2, #1
  83 0048 83F84620 		strb	r2, [r3, #70]
 310:Drivers/STM32F1xx_HAL_Driver/Src/stm32f1xx_hal_tim.c **** 
 311:Drivers/STM32F1xx_HAL_Driver/Src/stm32f1xx_hal_tim.c ****   /* Initialize the TIM channels state */
 312:Drivers/STM32F1xx_HAL_Driver/Src/stm32f1xx_hal_tim.c ****   TIM_CHANNEL_STATE_SET_ALL(htim, HAL_TIM_CHANNEL_STATE_READY);
  84              		.loc 1 312 3
  85 004c 7B68     		ldr	r3, [r7, #4]
  86 004e 0122     		movs	r2, #1
  87 0050 83F83E20 		strb	r2, [r3, #62]
  88 0054 7B68     		ldr	r3, [r7, #4]
ARM GAS  /tmp/ccW22bxd.s 			page 8


  89 0056 0122     		movs	r2, #1
  90 0058 83F83F20 		strb	r2, [r3, #63]
  91 005c 7B68     		ldr	r3, [r7, #4]
  92 005e 0122     		movs	r2, #1
  93 0060 83F84020 		strb	r2, [r3, #64]
  94 0064 7B68     		ldr	r3, [r7, #4]
  95 0066 0122     		movs	r2, #1
  96 0068 83F84120 		strb	r2, [r3, #65]
 313:Drivers/STM32F1xx_HAL_Driver/Src/stm32f1xx_hal_tim.c ****   TIM_CHANNEL_N_STATE_SET_ALL(htim, HAL_TIM_CHANNEL_STATE_READY);
  97              		.loc 1 313 3
  98 006c 7B68     		ldr	r3, [r7, #4]
  99 006e 0122     		movs	r2, #1
 100 0070 83F84220 		strb	r2, [r3, #66]
 101 0074 7B68     		ldr	r3, [r7, #4]
 102 0076 0122     		movs	r2, #1
 103 0078 83F84320 		strb	r2, [r3, #67]
 104 007c 7B68     		ldr	r3, [r7, #4]
 105 007e 0122     		movs	r2, #1
 106 0080 83F84420 		strb	r2, [r3, #68]
 107 0084 7B68     		ldr	r3, [r7, #4]
 108 0086 0122     		movs	r2, #1
 109 0088 83F84520 		strb	r2, [r3, #69]
 314:Drivers/STM32F1xx_HAL_Driver/Src/stm32f1xx_hal_tim.c **** 
 315:Drivers/STM32F1xx_HAL_Driver/Src/stm32f1xx_hal_tim.c ****   /* Initialize the TIM state*/
 316:Drivers/STM32F1xx_HAL_Driver/Src/stm32f1xx_hal_tim.c ****   htim->State = HAL_TIM_STATE_READY;
 110              		.loc 1 316 15
 111 008c 7B68     		ldr	r3, [r7, #4]
 112 008e 0122     		movs	r2, #1
 113 0090 83F83D20 		strb	r2, [r3, #61]
 317:Drivers/STM32F1xx_HAL_Driver/Src/stm32f1xx_hal_tim.c **** 
 318:Drivers/STM32F1xx_HAL_Driver/Src/stm32f1xx_hal_tim.c ****   return HAL_OK;
 114              		.loc 1 318 10
 115 0094 0023     		movs	r3, #0
 116              	.L3:
 319:Drivers/STM32F1xx_HAL_Driver/Src/stm32f1xx_hal_tim.c **** }
 117              		.loc 1 319 1
 118 0096 1846     		mov	r0, r3
 119 0098 0837     		adds	r7, r7, #8
 120              	.LCFI3:
 121              		.cfi_def_cfa_offset 8
 122 009a BD46     		mov	sp, r7
 123              	.LCFI4:
 124              		.cfi_def_cfa_register 13
 125              		@ sp needed
 126 009c 80BD     		pop	{r7, pc}
 127              		.cfi_endproc
 128              	.LFE65:
 130              		.section	.text.HAL_TIM_Base_DeInit,"ax",%progbits
 131              		.align	1
 132              		.global	HAL_TIM_Base_DeInit
 133              		.syntax unified
 134              		.thumb
 135              		.thumb_func
 137              	HAL_TIM_Base_DeInit:
 138              	.LFB66:
 320:Drivers/STM32F1xx_HAL_Driver/Src/stm32f1xx_hal_tim.c **** 
 321:Drivers/STM32F1xx_HAL_Driver/Src/stm32f1xx_hal_tim.c **** /**
ARM GAS  /tmp/ccW22bxd.s 			page 9


 322:Drivers/STM32F1xx_HAL_Driver/Src/stm32f1xx_hal_tim.c ****   * @brief  DeInitializes the TIM Base peripheral
 323:Drivers/STM32F1xx_HAL_Driver/Src/stm32f1xx_hal_tim.c ****   * @param  htim TIM Base handle
 324:Drivers/STM32F1xx_HAL_Driver/Src/stm32f1xx_hal_tim.c ****   * @retval HAL status
 325:Drivers/STM32F1xx_HAL_Driver/Src/stm32f1xx_hal_tim.c ****   */
 326:Drivers/STM32F1xx_HAL_Driver/Src/stm32f1xx_hal_tim.c **** HAL_StatusTypeDef HAL_TIM_Base_DeInit(TIM_HandleTypeDef *htim)
 327:Drivers/STM32F1xx_HAL_Driver/Src/stm32f1xx_hal_tim.c **** {
 139              		.loc 1 327 1
 140              		.cfi_startproc
 141              		@ args = 0, pretend = 0, frame = 8
 142              		@ frame_needed = 1, uses_anonymous_args = 0
 143 0000 80B5     		push	{r7, lr}
 144              	.LCFI5:
 145              		.cfi_def_cfa_offset 8
 146              		.cfi_offset 7, -8
 147              		.cfi_offset 14, -4
 148 0002 82B0     		sub	sp, sp, #8
 149              	.LCFI6:
 150              		.cfi_def_cfa_offset 16
 151 0004 00AF     		add	r7, sp, #0
 152              	.LCFI7:
 153              		.cfi_def_cfa_register 7
 154 0006 7860     		str	r0, [r7, #4]
 328:Drivers/STM32F1xx_HAL_Driver/Src/stm32f1xx_hal_tim.c ****   /* Check the parameters */
 329:Drivers/STM32F1xx_HAL_Driver/Src/stm32f1xx_hal_tim.c ****   assert_param(IS_TIM_INSTANCE(htim->Instance));
 330:Drivers/STM32F1xx_HAL_Driver/Src/stm32f1xx_hal_tim.c **** 
 331:Drivers/STM32F1xx_HAL_Driver/Src/stm32f1xx_hal_tim.c ****   htim->State = HAL_TIM_STATE_BUSY;
 155              		.loc 1 331 15
 156 0008 7B68     		ldr	r3, [r7, #4]
 157 000a 0222     		movs	r2, #2
 158 000c 83F83D20 		strb	r2, [r3, #61]
 332:Drivers/STM32F1xx_HAL_Driver/Src/stm32f1xx_hal_tim.c **** 
 333:Drivers/STM32F1xx_HAL_Driver/Src/stm32f1xx_hal_tim.c ****   /* Disable the TIM Peripheral Clock */
 334:Drivers/STM32F1xx_HAL_Driver/Src/stm32f1xx_hal_tim.c ****   __HAL_TIM_DISABLE(htim);
 159              		.loc 1 334 3
 160 0010 7B68     		ldr	r3, [r7, #4]
 161 0012 1B68     		ldr	r3, [r3]
 162 0014 1A6A     		ldr	r2, [r3, #32]
 163 0016 41F21113 		movw	r3, #4369
 164 001a 1340     		ands	r3, r3, r2
 165 001c 002B     		cmp	r3, #0
 166 001e 0FD1     		bne	.L6
 167              		.loc 1 334 3 is_stmt 0 discriminator 1
 168 0020 7B68     		ldr	r3, [r7, #4]
 169 0022 1B68     		ldr	r3, [r3]
 170 0024 1A6A     		ldr	r2, [r3, #32]
 171 0026 40F24443 		movw	r3, #1092
 172 002a 1340     		ands	r3, r3, r2
 173 002c 002B     		cmp	r3, #0
 174 002e 07D1     		bne	.L6
 175              		.loc 1 334 3 discriminator 2
 176 0030 7B68     		ldr	r3, [r7, #4]
 177 0032 1B68     		ldr	r3, [r3]
 178 0034 1A68     		ldr	r2, [r3]
 179 0036 7B68     		ldr	r3, [r7, #4]
 180 0038 1B68     		ldr	r3, [r3]
 181 003a 22F00102 		bic	r2, r2, #1
 182 003e 1A60     		str	r2, [r3]
ARM GAS  /tmp/ccW22bxd.s 			page 10


 183              	.L6:
 335:Drivers/STM32F1xx_HAL_Driver/Src/stm32f1xx_hal_tim.c **** 
 336:Drivers/STM32F1xx_HAL_Driver/Src/stm32f1xx_hal_tim.c **** #if (USE_HAL_TIM_REGISTER_CALLBACKS == 1)
 337:Drivers/STM32F1xx_HAL_Driver/Src/stm32f1xx_hal_tim.c ****   if (htim->Base_MspDeInitCallback == NULL)
 338:Drivers/STM32F1xx_HAL_Driver/Src/stm32f1xx_hal_tim.c ****   {
 339:Drivers/STM32F1xx_HAL_Driver/Src/stm32f1xx_hal_tim.c ****     htim->Base_MspDeInitCallback = HAL_TIM_Base_MspDeInit;
 340:Drivers/STM32F1xx_HAL_Driver/Src/stm32f1xx_hal_tim.c ****   }
 341:Drivers/STM32F1xx_HAL_Driver/Src/stm32f1xx_hal_tim.c ****   /* DeInit the low level hardware */
 342:Drivers/STM32F1xx_HAL_Driver/Src/stm32f1xx_hal_tim.c ****   htim->Base_MspDeInitCallback(htim);
 343:Drivers/STM32F1xx_HAL_Driver/Src/stm32f1xx_hal_tim.c **** #else
 344:Drivers/STM32F1xx_HAL_Driver/Src/stm32f1xx_hal_tim.c ****   /* DeInit the low level hardware: GPIO, CLOCK, NVIC */
 345:Drivers/STM32F1xx_HAL_Driver/Src/stm32f1xx_hal_tim.c ****   HAL_TIM_Base_MspDeInit(htim);
 184              		.loc 1 345 3 is_stmt 1
 185 0040 7868     		ldr	r0, [r7, #4]
 186 0042 FFF7FEFF 		bl	HAL_TIM_Base_MspDeInit
 346:Drivers/STM32F1xx_HAL_Driver/Src/stm32f1xx_hal_tim.c **** #endif /* USE_HAL_TIM_REGISTER_CALLBACKS */
 347:Drivers/STM32F1xx_HAL_Driver/Src/stm32f1xx_hal_tim.c **** 
 348:Drivers/STM32F1xx_HAL_Driver/Src/stm32f1xx_hal_tim.c ****   /* Change the DMA burst operation state */
 349:Drivers/STM32F1xx_HAL_Driver/Src/stm32f1xx_hal_tim.c ****   htim->DMABurstState = HAL_DMA_BURST_STATE_RESET;
 187              		.loc 1 349 23
 188 0046 7B68     		ldr	r3, [r7, #4]
 189 0048 0022     		movs	r2, #0
 190 004a 83F84620 		strb	r2, [r3, #70]
 350:Drivers/STM32F1xx_HAL_Driver/Src/stm32f1xx_hal_tim.c **** 
 351:Drivers/STM32F1xx_HAL_Driver/Src/stm32f1xx_hal_tim.c ****   /* Change the TIM channels state */
 352:Drivers/STM32F1xx_HAL_Driver/Src/stm32f1xx_hal_tim.c ****   TIM_CHANNEL_STATE_SET_ALL(htim, HAL_TIM_CHANNEL_STATE_RESET);
 191              		.loc 1 352 3
 192 004e 7B68     		ldr	r3, [r7, #4]
 193 0050 0022     		movs	r2, #0
 194 0052 83F83E20 		strb	r2, [r3, #62]
 195 0056 7B68     		ldr	r3, [r7, #4]
 196 0058 0022     		movs	r2, #0
 197 005a 83F83F20 		strb	r2, [r3, #63]
 198 005e 7B68     		ldr	r3, [r7, #4]
 199 0060 0022     		movs	r2, #0
 200 0062 83F84020 		strb	r2, [r3, #64]
 201 0066 7B68     		ldr	r3, [r7, #4]
 202 0068 0022     		movs	r2, #0
 203 006a 83F84120 		strb	r2, [r3, #65]
 353:Drivers/STM32F1xx_HAL_Driver/Src/stm32f1xx_hal_tim.c ****   TIM_CHANNEL_N_STATE_SET_ALL(htim, HAL_TIM_CHANNEL_STATE_RESET);
 204              		.loc 1 353 3
 205 006e 7B68     		ldr	r3, [r7, #4]
 206 0070 0022     		movs	r2, #0
 207 0072 83F84220 		strb	r2, [r3, #66]
 208 0076 7B68     		ldr	r3, [r7, #4]
 209 0078 0022     		movs	r2, #0
 210 007a 83F84320 		strb	r2, [r3, #67]
 211 007e 7B68     		ldr	r3, [r7, #4]
 212 0080 0022     		movs	r2, #0
 213 0082 83F84420 		strb	r2, [r3, #68]
 214 0086 7B68     		ldr	r3, [r7, #4]
 215 0088 0022     		movs	r2, #0
 216 008a 83F84520 		strb	r2, [r3, #69]
 354:Drivers/STM32F1xx_HAL_Driver/Src/stm32f1xx_hal_tim.c **** 
 355:Drivers/STM32F1xx_HAL_Driver/Src/stm32f1xx_hal_tim.c ****   /* Change TIM state */
 356:Drivers/STM32F1xx_HAL_Driver/Src/stm32f1xx_hal_tim.c ****   htim->State = HAL_TIM_STATE_RESET;
 217              		.loc 1 356 15
ARM GAS  /tmp/ccW22bxd.s 			page 11


 218 008e 7B68     		ldr	r3, [r7, #4]
 219 0090 0022     		movs	r2, #0
 220 0092 83F83D20 		strb	r2, [r3, #61]
 357:Drivers/STM32F1xx_HAL_Driver/Src/stm32f1xx_hal_tim.c **** 
 358:Drivers/STM32F1xx_HAL_Driver/Src/stm32f1xx_hal_tim.c ****   /* Release Lock */
 359:Drivers/STM32F1xx_HAL_Driver/Src/stm32f1xx_hal_tim.c ****   __HAL_UNLOCK(htim);
 221              		.loc 1 359 3
 222 0096 7B68     		ldr	r3, [r7, #4]
 223 0098 0022     		movs	r2, #0
 224 009a 83F83C20 		strb	r2, [r3, #60]
 360:Drivers/STM32F1xx_HAL_Driver/Src/stm32f1xx_hal_tim.c **** 
 361:Drivers/STM32F1xx_HAL_Driver/Src/stm32f1xx_hal_tim.c ****   return HAL_OK;
 225              		.loc 1 361 10
 226 009e 0023     		movs	r3, #0
 362:Drivers/STM32F1xx_HAL_Driver/Src/stm32f1xx_hal_tim.c **** }
 227              		.loc 1 362 1
 228 00a0 1846     		mov	r0, r3
 229 00a2 0837     		adds	r7, r7, #8
 230              	.LCFI8:
 231              		.cfi_def_cfa_offset 8
 232 00a4 BD46     		mov	sp, r7
 233              	.LCFI9:
 234              		.cfi_def_cfa_register 13
 235              		@ sp needed
 236 00a6 80BD     		pop	{r7, pc}
 237              		.cfi_endproc
 238              	.LFE66:
 240              		.section	.text.HAL_TIM_Base_MspInit,"ax",%progbits
 241              		.align	1
 242              		.weak	HAL_TIM_Base_MspInit
 243              		.syntax unified
 244              		.thumb
 245              		.thumb_func
 247              	HAL_TIM_Base_MspInit:
 248              	.LFB67:
 363:Drivers/STM32F1xx_HAL_Driver/Src/stm32f1xx_hal_tim.c **** 
 364:Drivers/STM32F1xx_HAL_Driver/Src/stm32f1xx_hal_tim.c **** /**
 365:Drivers/STM32F1xx_HAL_Driver/Src/stm32f1xx_hal_tim.c ****   * @brief  Initializes the TIM Base MSP.
 366:Drivers/STM32F1xx_HAL_Driver/Src/stm32f1xx_hal_tim.c ****   * @param  htim TIM Base handle
 367:Drivers/STM32F1xx_HAL_Driver/Src/stm32f1xx_hal_tim.c ****   * @retval None
 368:Drivers/STM32F1xx_HAL_Driver/Src/stm32f1xx_hal_tim.c ****   */
 369:Drivers/STM32F1xx_HAL_Driver/Src/stm32f1xx_hal_tim.c **** __weak void HAL_TIM_Base_MspInit(TIM_HandleTypeDef *htim)
 370:Drivers/STM32F1xx_HAL_Driver/Src/stm32f1xx_hal_tim.c **** {
 249              		.loc 1 370 1
 250              		.cfi_startproc
 251              		@ args = 0, pretend = 0, frame = 8
 252              		@ frame_needed = 1, uses_anonymous_args = 0
 253              		@ link register save eliminated.
 254 0000 80B4     		push	{r7}
 255              	.LCFI10:
 256              		.cfi_def_cfa_offset 4
 257              		.cfi_offset 7, -4
 258 0002 83B0     		sub	sp, sp, #12
 259              	.LCFI11:
 260              		.cfi_def_cfa_offset 16
 261 0004 00AF     		add	r7, sp, #0
 262              	.LCFI12:
ARM GAS  /tmp/ccW22bxd.s 			page 12


 263              		.cfi_def_cfa_register 7
 264 0006 7860     		str	r0, [r7, #4]
 371:Drivers/STM32F1xx_HAL_Driver/Src/stm32f1xx_hal_tim.c ****   /* Prevent unused argument(s) compilation warning */
 372:Drivers/STM32F1xx_HAL_Driver/Src/stm32f1xx_hal_tim.c ****   UNUSED(htim);
 373:Drivers/STM32F1xx_HAL_Driver/Src/stm32f1xx_hal_tim.c **** 
 374:Drivers/STM32F1xx_HAL_Driver/Src/stm32f1xx_hal_tim.c ****   /* NOTE : This function should not be modified, when the callback is needed,
 375:Drivers/STM32F1xx_HAL_Driver/Src/stm32f1xx_hal_tim.c ****             the HAL_TIM_Base_MspInit could be implemented in the user file
 376:Drivers/STM32F1xx_HAL_Driver/Src/stm32f1xx_hal_tim.c ****    */
 377:Drivers/STM32F1xx_HAL_Driver/Src/stm32f1xx_hal_tim.c **** }
 265              		.loc 1 377 1
 266 0008 00BF     		nop
 267 000a 0C37     		adds	r7, r7, #12
 268              	.LCFI13:
 269              		.cfi_def_cfa_offset 4
 270 000c BD46     		mov	sp, r7
 271              	.LCFI14:
 272              		.cfi_def_cfa_register 13
 273              		@ sp needed
 274 000e 80BC     		pop	{r7}
 275              	.LCFI15:
 276              		.cfi_restore 7
 277              		.cfi_def_cfa_offset 0
 278 0010 7047     		bx	lr
 279              		.cfi_endproc
 280              	.LFE67:
 282              		.section	.text.HAL_TIM_Base_MspDeInit,"ax",%progbits
 283              		.align	1
 284              		.weak	HAL_TIM_Base_MspDeInit
 285              		.syntax unified
 286              		.thumb
 287              		.thumb_func
 289              	HAL_TIM_Base_MspDeInit:
 290              	.LFB68:
 378:Drivers/STM32F1xx_HAL_Driver/Src/stm32f1xx_hal_tim.c **** 
 379:Drivers/STM32F1xx_HAL_Driver/Src/stm32f1xx_hal_tim.c **** /**
 380:Drivers/STM32F1xx_HAL_Driver/Src/stm32f1xx_hal_tim.c ****   * @brief  DeInitializes TIM Base MSP.
 381:Drivers/STM32F1xx_HAL_Driver/Src/stm32f1xx_hal_tim.c ****   * @param  htim TIM Base handle
 382:Drivers/STM32F1xx_HAL_Driver/Src/stm32f1xx_hal_tim.c ****   * @retval None
 383:Drivers/STM32F1xx_HAL_Driver/Src/stm32f1xx_hal_tim.c ****   */
 384:Drivers/STM32F1xx_HAL_Driver/Src/stm32f1xx_hal_tim.c **** __weak void HAL_TIM_Base_MspDeInit(TIM_HandleTypeDef *htim)
 385:Drivers/STM32F1xx_HAL_Driver/Src/stm32f1xx_hal_tim.c **** {
 291              		.loc 1 385 1
 292              		.cfi_startproc
 293              		@ args = 0, pretend = 0, frame = 8
 294              		@ frame_needed = 1, uses_anonymous_args = 0
 295              		@ link register save eliminated.
 296 0000 80B4     		push	{r7}
 297              	.LCFI16:
 298              		.cfi_def_cfa_offset 4
 299              		.cfi_offset 7, -4
 300 0002 83B0     		sub	sp, sp, #12
 301              	.LCFI17:
 302              		.cfi_def_cfa_offset 16
 303 0004 00AF     		add	r7, sp, #0
 304              	.LCFI18:
 305              		.cfi_def_cfa_register 7
 306 0006 7860     		str	r0, [r7, #4]
ARM GAS  /tmp/ccW22bxd.s 			page 13


 386:Drivers/STM32F1xx_HAL_Driver/Src/stm32f1xx_hal_tim.c ****   /* Prevent unused argument(s) compilation warning */
 387:Drivers/STM32F1xx_HAL_Driver/Src/stm32f1xx_hal_tim.c ****   UNUSED(htim);
 388:Drivers/STM32F1xx_HAL_Driver/Src/stm32f1xx_hal_tim.c **** 
 389:Drivers/STM32F1xx_HAL_Driver/Src/stm32f1xx_hal_tim.c ****   /* NOTE : This function should not be modified, when the callback is needed,
 390:Drivers/STM32F1xx_HAL_Driver/Src/stm32f1xx_hal_tim.c ****             the HAL_TIM_Base_MspDeInit could be implemented in the user file
 391:Drivers/STM32F1xx_HAL_Driver/Src/stm32f1xx_hal_tim.c ****    */
 392:Drivers/STM32F1xx_HAL_Driver/Src/stm32f1xx_hal_tim.c **** }
 307              		.loc 1 392 1
 308 0008 00BF     		nop
 309 000a 0C37     		adds	r7, r7, #12
 310              	.LCFI19:
 311              		.cfi_def_cfa_offset 4
 312 000c BD46     		mov	sp, r7
 313              	.LCFI20:
 314              		.cfi_def_cfa_register 13
 315              		@ sp needed
 316 000e 80BC     		pop	{r7}
 317              	.LCFI21:
 318              		.cfi_restore 7
 319              		.cfi_def_cfa_offset 0
 320 0010 7047     		bx	lr
 321              		.cfi_endproc
 322              	.LFE68:
 324              		.section	.text.HAL_TIM_Base_Start,"ax",%progbits
 325              		.align	1
 326              		.global	HAL_TIM_Base_Start
 327              		.syntax unified
 328              		.thumb
 329              		.thumb_func
 331              	HAL_TIM_Base_Start:
 332              	.LFB69:
 393:Drivers/STM32F1xx_HAL_Driver/Src/stm32f1xx_hal_tim.c **** 
 394:Drivers/STM32F1xx_HAL_Driver/Src/stm32f1xx_hal_tim.c **** 
 395:Drivers/STM32F1xx_HAL_Driver/Src/stm32f1xx_hal_tim.c **** /**
 396:Drivers/STM32F1xx_HAL_Driver/Src/stm32f1xx_hal_tim.c ****   * @brief  Starts the TIM Base generation.
 397:Drivers/STM32F1xx_HAL_Driver/Src/stm32f1xx_hal_tim.c ****   * @param  htim TIM Base handle
 398:Drivers/STM32F1xx_HAL_Driver/Src/stm32f1xx_hal_tim.c ****   * @retval HAL status
 399:Drivers/STM32F1xx_HAL_Driver/Src/stm32f1xx_hal_tim.c ****   */
 400:Drivers/STM32F1xx_HAL_Driver/Src/stm32f1xx_hal_tim.c **** HAL_StatusTypeDef HAL_TIM_Base_Start(TIM_HandleTypeDef *htim)
 401:Drivers/STM32F1xx_HAL_Driver/Src/stm32f1xx_hal_tim.c **** {
 333              		.loc 1 401 1
 334              		.cfi_startproc
 335              		@ args = 0, pretend = 0, frame = 16
 336              		@ frame_needed = 1, uses_anonymous_args = 0
 337              		@ link register save eliminated.
 338 0000 80B4     		push	{r7}
 339              	.LCFI22:
 340              		.cfi_def_cfa_offset 4
 341              		.cfi_offset 7, -4
 342 0002 85B0     		sub	sp, sp, #20
 343              	.LCFI23:
 344              		.cfi_def_cfa_offset 24
 345 0004 00AF     		add	r7, sp, #0
 346              	.LCFI24:
 347              		.cfi_def_cfa_register 7
 348 0006 7860     		str	r0, [r7, #4]
 402:Drivers/STM32F1xx_HAL_Driver/Src/stm32f1xx_hal_tim.c ****   uint32_t tmpsmcr;
ARM GAS  /tmp/ccW22bxd.s 			page 14


 403:Drivers/STM32F1xx_HAL_Driver/Src/stm32f1xx_hal_tim.c **** 
 404:Drivers/STM32F1xx_HAL_Driver/Src/stm32f1xx_hal_tim.c ****   /* Check the parameters */
 405:Drivers/STM32F1xx_HAL_Driver/Src/stm32f1xx_hal_tim.c ****   assert_param(IS_TIM_INSTANCE(htim->Instance));
 406:Drivers/STM32F1xx_HAL_Driver/Src/stm32f1xx_hal_tim.c **** 
 407:Drivers/STM32F1xx_HAL_Driver/Src/stm32f1xx_hal_tim.c ****   /* Check the TIM state */
 408:Drivers/STM32F1xx_HAL_Driver/Src/stm32f1xx_hal_tim.c ****   if (htim->State != HAL_TIM_STATE_READY)
 349              		.loc 1 408 11
 350 0008 7B68     		ldr	r3, [r7, #4]
 351 000a 93F83D30 		ldrb	r3, [r3, #61]
 352 000e DBB2     		uxtb	r3, r3
 353              		.loc 1 408 6
 354 0010 012B     		cmp	r3, #1
 355 0012 01D0     		beq	.L11
 409:Drivers/STM32F1xx_HAL_Driver/Src/stm32f1xx_hal_tim.c ****   {
 410:Drivers/STM32F1xx_HAL_Driver/Src/stm32f1xx_hal_tim.c ****     return HAL_ERROR;
 356              		.loc 1 410 12
 357 0014 0123     		movs	r3, #1
 358 0016 32E0     		b	.L12
 359              	.L11:
 411:Drivers/STM32F1xx_HAL_Driver/Src/stm32f1xx_hal_tim.c ****   }
 412:Drivers/STM32F1xx_HAL_Driver/Src/stm32f1xx_hal_tim.c **** 
 413:Drivers/STM32F1xx_HAL_Driver/Src/stm32f1xx_hal_tim.c ****   /* Set the TIM state */
 414:Drivers/STM32F1xx_HAL_Driver/Src/stm32f1xx_hal_tim.c ****   htim->State = HAL_TIM_STATE_BUSY;
 360              		.loc 1 414 15
 361 0018 7B68     		ldr	r3, [r7, #4]
 362 001a 0222     		movs	r2, #2
 363 001c 83F83D20 		strb	r2, [r3, #61]
 415:Drivers/STM32F1xx_HAL_Driver/Src/stm32f1xx_hal_tim.c **** 
 416:Drivers/STM32F1xx_HAL_Driver/Src/stm32f1xx_hal_tim.c ****   /* Enable the Peripheral, except in trigger mode where enable is automatically done with trigger 
 417:Drivers/STM32F1xx_HAL_Driver/Src/stm32f1xx_hal_tim.c ****   if (IS_TIM_SLAVE_INSTANCE(htim->Instance))
 364              		.loc 1 417 7
 365 0020 7B68     		ldr	r3, [r7, #4]
 366 0022 1B68     		ldr	r3, [r3]
 367              		.loc 1 417 6
 368 0024 184A     		ldr	r2, .L17
 369 0026 9342     		cmp	r3, r2
 370 0028 0ED0     		beq	.L13
 371              		.loc 1 417 7 discriminator 1
 372 002a 7B68     		ldr	r3, [r7, #4]
 373 002c 1B68     		ldr	r3, [r3]
 374 002e B3F1804F 		cmp	r3, #1073741824
 375 0032 09D0     		beq	.L13
 376              		.loc 1 417 7 is_stmt 0 discriminator 2
 377 0034 7B68     		ldr	r3, [r7, #4]
 378 0036 1B68     		ldr	r3, [r3]
 379 0038 144A     		ldr	r2, .L17+4
 380 003a 9342     		cmp	r3, r2
 381 003c 04D0     		beq	.L13
 382              		.loc 1 417 7 discriminator 3
 383 003e 7B68     		ldr	r3, [r7, #4]
 384 0040 1B68     		ldr	r3, [r3]
 385 0042 134A     		ldr	r2, .L17+8
 386 0044 9342     		cmp	r3, r2
 387 0046 11D1     		bne	.L14
 388              	.L13:
 418:Drivers/STM32F1xx_HAL_Driver/Src/stm32f1xx_hal_tim.c ****   {
 419:Drivers/STM32F1xx_HAL_Driver/Src/stm32f1xx_hal_tim.c ****     tmpsmcr = htim->Instance->SMCR & TIM_SMCR_SMS;
ARM GAS  /tmp/ccW22bxd.s 			page 15


 389              		.loc 1 419 19 is_stmt 1
 390 0048 7B68     		ldr	r3, [r7, #4]
 391 004a 1B68     		ldr	r3, [r3]
 392              		.loc 1 419 29
 393 004c 9B68     		ldr	r3, [r3, #8]
 394              		.loc 1 419 13
 395 004e 03F00703 		and	r3, r3, #7
 396 0052 FB60     		str	r3, [r7, #12]
 420:Drivers/STM32F1xx_HAL_Driver/Src/stm32f1xx_hal_tim.c ****     if (!IS_TIM_SLAVEMODE_TRIGGER_ENABLED(tmpsmcr))
 397              		.loc 1 420 8
 398 0054 FB68     		ldr	r3, [r7, #12]
 399 0056 062B     		cmp	r3, #6
 400 0058 10D0     		beq	.L16
 421:Drivers/STM32F1xx_HAL_Driver/Src/stm32f1xx_hal_tim.c ****     {
 422:Drivers/STM32F1xx_HAL_Driver/Src/stm32f1xx_hal_tim.c ****       __HAL_TIM_ENABLE(htim);
 401              		.loc 1 422 7
 402 005a 7B68     		ldr	r3, [r7, #4]
 403 005c 1B68     		ldr	r3, [r3]
 404 005e 1A68     		ldr	r2, [r3]
 405 0060 7B68     		ldr	r3, [r7, #4]
 406 0062 1B68     		ldr	r3, [r3]
 407 0064 42F00102 		orr	r2, r2, #1
 408 0068 1A60     		str	r2, [r3]
 420:Drivers/STM32F1xx_HAL_Driver/Src/stm32f1xx_hal_tim.c ****     if (!IS_TIM_SLAVEMODE_TRIGGER_ENABLED(tmpsmcr))
 409              		.loc 1 420 8
 410 006a 07E0     		b	.L16
 411              	.L14:
 423:Drivers/STM32F1xx_HAL_Driver/Src/stm32f1xx_hal_tim.c ****     }
 424:Drivers/STM32F1xx_HAL_Driver/Src/stm32f1xx_hal_tim.c ****   }
 425:Drivers/STM32F1xx_HAL_Driver/Src/stm32f1xx_hal_tim.c ****   else
 426:Drivers/STM32F1xx_HAL_Driver/Src/stm32f1xx_hal_tim.c ****   {
 427:Drivers/STM32F1xx_HAL_Driver/Src/stm32f1xx_hal_tim.c ****     __HAL_TIM_ENABLE(htim);
 412              		.loc 1 427 5
 413 006c 7B68     		ldr	r3, [r7, #4]
 414 006e 1B68     		ldr	r3, [r3]
 415 0070 1A68     		ldr	r2, [r3]
 416 0072 7B68     		ldr	r3, [r7, #4]
 417 0074 1B68     		ldr	r3, [r3]
 418 0076 42F00102 		orr	r2, r2, #1
 419 007a 1A60     		str	r2, [r3]
 420              	.L16:
 428:Drivers/STM32F1xx_HAL_Driver/Src/stm32f1xx_hal_tim.c ****   }
 429:Drivers/STM32F1xx_HAL_Driver/Src/stm32f1xx_hal_tim.c **** 
 430:Drivers/STM32F1xx_HAL_Driver/Src/stm32f1xx_hal_tim.c ****   /* Return function status */
 431:Drivers/STM32F1xx_HAL_Driver/Src/stm32f1xx_hal_tim.c ****   return HAL_OK;
 421              		.loc 1 431 10
 422 007c 0023     		movs	r3, #0
 423              	.L12:
 432:Drivers/STM32F1xx_HAL_Driver/Src/stm32f1xx_hal_tim.c **** }
 424              		.loc 1 432 1
 425 007e 1846     		mov	r0, r3
 426 0080 1437     		adds	r7, r7, #20
 427              	.LCFI25:
 428              		.cfi_def_cfa_offset 4
 429 0082 BD46     		mov	sp, r7
 430              	.LCFI26:
 431              		.cfi_def_cfa_register 13
ARM GAS  /tmp/ccW22bxd.s 			page 16


 432              		@ sp needed
 433 0084 80BC     		pop	{r7}
 434              	.LCFI27:
 435              		.cfi_restore 7
 436              		.cfi_def_cfa_offset 0
 437 0086 7047     		bx	lr
 438              	.L18:
 439              		.align	2
 440              	.L17:
 441 0088 002C0140 		.word	1073818624
 442 008c 00040040 		.word	1073742848
 443 0090 00080040 		.word	1073743872
 444              		.cfi_endproc
 445              	.LFE69:
 447              		.section	.text.HAL_TIM_Base_Stop,"ax",%progbits
 448              		.align	1
 449              		.global	HAL_TIM_Base_Stop
 450              		.syntax unified
 451              		.thumb
 452              		.thumb_func
 454              	HAL_TIM_Base_Stop:
 455              	.LFB70:
 433:Drivers/STM32F1xx_HAL_Driver/Src/stm32f1xx_hal_tim.c **** 
 434:Drivers/STM32F1xx_HAL_Driver/Src/stm32f1xx_hal_tim.c **** /**
 435:Drivers/STM32F1xx_HAL_Driver/Src/stm32f1xx_hal_tim.c ****   * @brief  Stops the TIM Base generation.
 436:Drivers/STM32F1xx_HAL_Driver/Src/stm32f1xx_hal_tim.c ****   * @param  htim TIM Base handle
 437:Drivers/STM32F1xx_HAL_Driver/Src/stm32f1xx_hal_tim.c ****   * @retval HAL status
 438:Drivers/STM32F1xx_HAL_Driver/Src/stm32f1xx_hal_tim.c ****   */
 439:Drivers/STM32F1xx_HAL_Driver/Src/stm32f1xx_hal_tim.c **** HAL_StatusTypeDef HAL_TIM_Base_Stop(TIM_HandleTypeDef *htim)
 440:Drivers/STM32F1xx_HAL_Driver/Src/stm32f1xx_hal_tim.c **** {
 456              		.loc 1 440 1
 457              		.cfi_startproc
 458              		@ args = 0, pretend = 0, frame = 8
 459              		@ frame_needed = 1, uses_anonymous_args = 0
 460              		@ link register save eliminated.
 461 0000 80B4     		push	{r7}
 462              	.LCFI28:
 463              		.cfi_def_cfa_offset 4
 464              		.cfi_offset 7, -4
 465 0002 83B0     		sub	sp, sp, #12
 466              	.LCFI29:
 467              		.cfi_def_cfa_offset 16
 468 0004 00AF     		add	r7, sp, #0
 469              	.LCFI30:
 470              		.cfi_def_cfa_register 7
 471 0006 7860     		str	r0, [r7, #4]
 441:Drivers/STM32F1xx_HAL_Driver/Src/stm32f1xx_hal_tim.c ****   /* Check the parameters */
 442:Drivers/STM32F1xx_HAL_Driver/Src/stm32f1xx_hal_tim.c ****   assert_param(IS_TIM_INSTANCE(htim->Instance));
 443:Drivers/STM32F1xx_HAL_Driver/Src/stm32f1xx_hal_tim.c **** 
 444:Drivers/STM32F1xx_HAL_Driver/Src/stm32f1xx_hal_tim.c ****   /* Disable the Peripheral */
 445:Drivers/STM32F1xx_HAL_Driver/Src/stm32f1xx_hal_tim.c ****   __HAL_TIM_DISABLE(htim);
 472              		.loc 1 445 3
 473 0008 7B68     		ldr	r3, [r7, #4]
 474 000a 1B68     		ldr	r3, [r3]
 475 000c 1A6A     		ldr	r2, [r3, #32]
 476 000e 41F21113 		movw	r3, #4369
 477 0012 1340     		ands	r3, r3, r2
ARM GAS  /tmp/ccW22bxd.s 			page 17


 478 0014 002B     		cmp	r3, #0
 479 0016 0FD1     		bne	.L20
 480              		.loc 1 445 3 is_stmt 0 discriminator 1
 481 0018 7B68     		ldr	r3, [r7, #4]
 482 001a 1B68     		ldr	r3, [r3]
 483 001c 1A6A     		ldr	r2, [r3, #32]
 484 001e 40F24443 		movw	r3, #1092
 485 0022 1340     		ands	r3, r3, r2
 486 0024 002B     		cmp	r3, #0
 487 0026 07D1     		bne	.L20
 488              		.loc 1 445 3 discriminator 2
 489 0028 7B68     		ldr	r3, [r7, #4]
 490 002a 1B68     		ldr	r3, [r3]
 491 002c 1A68     		ldr	r2, [r3]
 492 002e 7B68     		ldr	r3, [r7, #4]
 493 0030 1B68     		ldr	r3, [r3]
 494 0032 22F00102 		bic	r2, r2, #1
 495 0036 1A60     		str	r2, [r3]
 496              	.L20:
 446:Drivers/STM32F1xx_HAL_Driver/Src/stm32f1xx_hal_tim.c **** 
 447:Drivers/STM32F1xx_HAL_Driver/Src/stm32f1xx_hal_tim.c ****   /* Set the TIM state */
 448:Drivers/STM32F1xx_HAL_Driver/Src/stm32f1xx_hal_tim.c ****   htim->State = HAL_TIM_STATE_READY;
 497              		.loc 1 448 15 is_stmt 1
 498 0038 7B68     		ldr	r3, [r7, #4]
 499 003a 0122     		movs	r2, #1
 500 003c 83F83D20 		strb	r2, [r3, #61]
 449:Drivers/STM32F1xx_HAL_Driver/Src/stm32f1xx_hal_tim.c **** 
 450:Drivers/STM32F1xx_HAL_Driver/Src/stm32f1xx_hal_tim.c ****   /* Return function status */
 451:Drivers/STM32F1xx_HAL_Driver/Src/stm32f1xx_hal_tim.c ****   return HAL_OK;
 501              		.loc 1 451 10
 502 0040 0023     		movs	r3, #0
 452:Drivers/STM32F1xx_HAL_Driver/Src/stm32f1xx_hal_tim.c **** }
 503              		.loc 1 452 1
 504 0042 1846     		mov	r0, r3
 505 0044 0C37     		adds	r7, r7, #12
 506              	.LCFI31:
 507              		.cfi_def_cfa_offset 4
 508 0046 BD46     		mov	sp, r7
 509              	.LCFI32:
 510              		.cfi_def_cfa_register 13
 511              		@ sp needed
 512 0048 80BC     		pop	{r7}
 513              	.LCFI33:
 514              		.cfi_restore 7
 515              		.cfi_def_cfa_offset 0
 516 004a 7047     		bx	lr
 517              		.cfi_endproc
 518              	.LFE70:
 520              		.section	.text.HAL_TIM_Base_Start_IT,"ax",%progbits
 521              		.align	1
 522              		.global	HAL_TIM_Base_Start_IT
 523              		.syntax unified
 524              		.thumb
 525              		.thumb_func
 527              	HAL_TIM_Base_Start_IT:
 528              	.LFB71:
 453:Drivers/STM32F1xx_HAL_Driver/Src/stm32f1xx_hal_tim.c **** 
ARM GAS  /tmp/ccW22bxd.s 			page 18


 454:Drivers/STM32F1xx_HAL_Driver/Src/stm32f1xx_hal_tim.c **** /**
 455:Drivers/STM32F1xx_HAL_Driver/Src/stm32f1xx_hal_tim.c ****   * @brief  Starts the TIM Base generation in interrupt mode.
 456:Drivers/STM32F1xx_HAL_Driver/Src/stm32f1xx_hal_tim.c ****   * @param  htim TIM Base handle
 457:Drivers/STM32F1xx_HAL_Driver/Src/stm32f1xx_hal_tim.c ****   * @retval HAL status
 458:Drivers/STM32F1xx_HAL_Driver/Src/stm32f1xx_hal_tim.c ****   */
 459:Drivers/STM32F1xx_HAL_Driver/Src/stm32f1xx_hal_tim.c **** HAL_StatusTypeDef HAL_TIM_Base_Start_IT(TIM_HandleTypeDef *htim)
 460:Drivers/STM32F1xx_HAL_Driver/Src/stm32f1xx_hal_tim.c **** {
 529              		.loc 1 460 1
 530              		.cfi_startproc
 531              		@ args = 0, pretend = 0, frame = 16
 532              		@ frame_needed = 1, uses_anonymous_args = 0
 533              		@ link register save eliminated.
 534 0000 80B4     		push	{r7}
 535              	.LCFI34:
 536              		.cfi_def_cfa_offset 4
 537              		.cfi_offset 7, -4
 538 0002 85B0     		sub	sp, sp, #20
 539              	.LCFI35:
 540              		.cfi_def_cfa_offset 24
 541 0004 00AF     		add	r7, sp, #0
 542              	.LCFI36:
 543              		.cfi_def_cfa_register 7
 544 0006 7860     		str	r0, [r7, #4]
 461:Drivers/STM32F1xx_HAL_Driver/Src/stm32f1xx_hal_tim.c ****   uint32_t tmpsmcr;
 462:Drivers/STM32F1xx_HAL_Driver/Src/stm32f1xx_hal_tim.c **** 
 463:Drivers/STM32F1xx_HAL_Driver/Src/stm32f1xx_hal_tim.c ****   /* Check the parameters */
 464:Drivers/STM32F1xx_HAL_Driver/Src/stm32f1xx_hal_tim.c ****   assert_param(IS_TIM_INSTANCE(htim->Instance));
 465:Drivers/STM32F1xx_HAL_Driver/Src/stm32f1xx_hal_tim.c **** 
 466:Drivers/STM32F1xx_HAL_Driver/Src/stm32f1xx_hal_tim.c ****   /* Check the TIM state */
 467:Drivers/STM32F1xx_HAL_Driver/Src/stm32f1xx_hal_tim.c ****   if (htim->State != HAL_TIM_STATE_READY)
 545              		.loc 1 467 11
 546 0008 7B68     		ldr	r3, [r7, #4]
 547 000a 93F83D30 		ldrb	r3, [r3, #61]
 548 000e DBB2     		uxtb	r3, r3
 549              		.loc 1 467 6
 550 0010 012B     		cmp	r3, #1
 551 0012 01D0     		beq	.L23
 468:Drivers/STM32F1xx_HAL_Driver/Src/stm32f1xx_hal_tim.c ****   {
 469:Drivers/STM32F1xx_HAL_Driver/Src/stm32f1xx_hal_tim.c ****     return HAL_ERROR;
 552              		.loc 1 469 12
 553 0014 0123     		movs	r3, #1
 554 0016 3AE0     		b	.L24
 555              	.L23:
 470:Drivers/STM32F1xx_HAL_Driver/Src/stm32f1xx_hal_tim.c ****   }
 471:Drivers/STM32F1xx_HAL_Driver/Src/stm32f1xx_hal_tim.c **** 
 472:Drivers/STM32F1xx_HAL_Driver/Src/stm32f1xx_hal_tim.c ****   /* Set the TIM state */
 473:Drivers/STM32F1xx_HAL_Driver/Src/stm32f1xx_hal_tim.c ****   htim->State = HAL_TIM_STATE_BUSY;
 556              		.loc 1 473 15
 557 0018 7B68     		ldr	r3, [r7, #4]
 558 001a 0222     		movs	r2, #2
 559 001c 83F83D20 		strb	r2, [r3, #61]
 474:Drivers/STM32F1xx_HAL_Driver/Src/stm32f1xx_hal_tim.c **** 
 475:Drivers/STM32F1xx_HAL_Driver/Src/stm32f1xx_hal_tim.c ****   /* Enable the TIM Update interrupt */
 476:Drivers/STM32F1xx_HAL_Driver/Src/stm32f1xx_hal_tim.c ****   __HAL_TIM_ENABLE_IT(htim, TIM_IT_UPDATE);
 560              		.loc 1 476 3
 561 0020 7B68     		ldr	r3, [r7, #4]
 562 0022 1B68     		ldr	r3, [r3]
ARM GAS  /tmp/ccW22bxd.s 			page 19


 563 0024 DA68     		ldr	r2, [r3, #12]
 564 0026 7B68     		ldr	r3, [r7, #4]
 565 0028 1B68     		ldr	r3, [r3]
 566 002a 42F00102 		orr	r2, r2, #1
 567 002e DA60     		str	r2, [r3, #12]
 477:Drivers/STM32F1xx_HAL_Driver/Src/stm32f1xx_hal_tim.c **** 
 478:Drivers/STM32F1xx_HAL_Driver/Src/stm32f1xx_hal_tim.c ****   /* Enable the Peripheral, except in trigger mode where enable is automatically done with trigger 
 479:Drivers/STM32F1xx_HAL_Driver/Src/stm32f1xx_hal_tim.c ****   if (IS_TIM_SLAVE_INSTANCE(htim->Instance))
 568              		.loc 1 479 7
 569 0030 7B68     		ldr	r3, [r7, #4]
 570 0032 1B68     		ldr	r3, [r3]
 571              		.loc 1 479 6
 572 0034 184A     		ldr	r2, .L29
 573 0036 9342     		cmp	r3, r2
 574 0038 0ED0     		beq	.L25
 575              		.loc 1 479 7 discriminator 1
 576 003a 7B68     		ldr	r3, [r7, #4]
 577 003c 1B68     		ldr	r3, [r3]
 578 003e B3F1804F 		cmp	r3, #1073741824
 579 0042 09D0     		beq	.L25
 580              		.loc 1 479 7 is_stmt 0 discriminator 2
 581 0044 7B68     		ldr	r3, [r7, #4]
 582 0046 1B68     		ldr	r3, [r3]
 583 0048 144A     		ldr	r2, .L29+4
 584 004a 9342     		cmp	r3, r2
 585 004c 04D0     		beq	.L25
 586              		.loc 1 479 7 discriminator 3
 587 004e 7B68     		ldr	r3, [r7, #4]
 588 0050 1B68     		ldr	r3, [r3]
 589 0052 134A     		ldr	r2, .L29+8
 590 0054 9342     		cmp	r3, r2
 591 0056 11D1     		bne	.L26
 592              	.L25:
 480:Drivers/STM32F1xx_HAL_Driver/Src/stm32f1xx_hal_tim.c ****   {
 481:Drivers/STM32F1xx_HAL_Driver/Src/stm32f1xx_hal_tim.c ****     tmpsmcr = htim->Instance->SMCR & TIM_SMCR_SMS;
 593              		.loc 1 481 19 is_stmt 1
 594 0058 7B68     		ldr	r3, [r7, #4]
 595 005a 1B68     		ldr	r3, [r3]
 596              		.loc 1 481 29
 597 005c 9B68     		ldr	r3, [r3, #8]
 598              		.loc 1 481 13
 599 005e 03F00703 		and	r3, r3, #7
 600 0062 FB60     		str	r3, [r7, #12]
 482:Drivers/STM32F1xx_HAL_Driver/Src/stm32f1xx_hal_tim.c ****     if (!IS_TIM_SLAVEMODE_TRIGGER_ENABLED(tmpsmcr))
 601              		.loc 1 482 8
 602 0064 FB68     		ldr	r3, [r7, #12]
 603 0066 062B     		cmp	r3, #6
 604 0068 10D0     		beq	.L28
 483:Drivers/STM32F1xx_HAL_Driver/Src/stm32f1xx_hal_tim.c ****     {
 484:Drivers/STM32F1xx_HAL_Driver/Src/stm32f1xx_hal_tim.c ****       __HAL_TIM_ENABLE(htim);
 605              		.loc 1 484 7
 606 006a 7B68     		ldr	r3, [r7, #4]
 607 006c 1B68     		ldr	r3, [r3]
 608 006e 1A68     		ldr	r2, [r3]
 609 0070 7B68     		ldr	r3, [r7, #4]
 610 0072 1B68     		ldr	r3, [r3]
 611 0074 42F00102 		orr	r2, r2, #1
ARM GAS  /tmp/ccW22bxd.s 			page 20


 612 0078 1A60     		str	r2, [r3]
 482:Drivers/STM32F1xx_HAL_Driver/Src/stm32f1xx_hal_tim.c ****     if (!IS_TIM_SLAVEMODE_TRIGGER_ENABLED(tmpsmcr))
 613              		.loc 1 482 8
 614 007a 07E0     		b	.L28
 615              	.L26:
 485:Drivers/STM32F1xx_HAL_Driver/Src/stm32f1xx_hal_tim.c ****     }
 486:Drivers/STM32F1xx_HAL_Driver/Src/stm32f1xx_hal_tim.c ****   }
 487:Drivers/STM32F1xx_HAL_Driver/Src/stm32f1xx_hal_tim.c ****   else
 488:Drivers/STM32F1xx_HAL_Driver/Src/stm32f1xx_hal_tim.c ****   {
 489:Drivers/STM32F1xx_HAL_Driver/Src/stm32f1xx_hal_tim.c ****     __HAL_TIM_ENABLE(htim);
 616              		.loc 1 489 5
 617 007c 7B68     		ldr	r3, [r7, #4]
 618 007e 1B68     		ldr	r3, [r3]
 619 0080 1A68     		ldr	r2, [r3]
 620 0082 7B68     		ldr	r3, [r7, #4]
 621 0084 1B68     		ldr	r3, [r3]
 622 0086 42F00102 		orr	r2, r2, #1
 623 008a 1A60     		str	r2, [r3]
 624              	.L28:
 490:Drivers/STM32F1xx_HAL_Driver/Src/stm32f1xx_hal_tim.c ****   }
 491:Drivers/STM32F1xx_HAL_Driver/Src/stm32f1xx_hal_tim.c **** 
 492:Drivers/STM32F1xx_HAL_Driver/Src/stm32f1xx_hal_tim.c ****   /* Return function status */
 493:Drivers/STM32F1xx_HAL_Driver/Src/stm32f1xx_hal_tim.c ****   return HAL_OK;
 625              		.loc 1 493 10
 626 008c 0023     		movs	r3, #0
 627              	.L24:
 494:Drivers/STM32F1xx_HAL_Driver/Src/stm32f1xx_hal_tim.c **** }
 628              		.loc 1 494 1
 629 008e 1846     		mov	r0, r3
 630 0090 1437     		adds	r7, r7, #20
 631              	.LCFI37:
 632              		.cfi_def_cfa_offset 4
 633 0092 BD46     		mov	sp, r7
 634              	.LCFI38:
 635              		.cfi_def_cfa_register 13
 636              		@ sp needed
 637 0094 80BC     		pop	{r7}
 638              	.LCFI39:
 639              		.cfi_restore 7
 640              		.cfi_def_cfa_offset 0
 641 0096 7047     		bx	lr
 642              	.L30:
 643              		.align	2
 644              	.L29:
 645 0098 002C0140 		.word	1073818624
 646 009c 00040040 		.word	1073742848
 647 00a0 00080040 		.word	1073743872
 648              		.cfi_endproc
 649              	.LFE71:
 651              		.section	.text.HAL_TIM_Base_Stop_IT,"ax",%progbits
 652              		.align	1
 653              		.global	HAL_TIM_Base_Stop_IT
 654              		.syntax unified
 655              		.thumb
 656              		.thumb_func
 658              	HAL_TIM_Base_Stop_IT:
 659              	.LFB72:
ARM GAS  /tmp/ccW22bxd.s 			page 21


 495:Drivers/STM32F1xx_HAL_Driver/Src/stm32f1xx_hal_tim.c **** 
 496:Drivers/STM32F1xx_HAL_Driver/Src/stm32f1xx_hal_tim.c **** /**
 497:Drivers/STM32F1xx_HAL_Driver/Src/stm32f1xx_hal_tim.c ****   * @brief  Stops the TIM Base generation in interrupt mode.
 498:Drivers/STM32F1xx_HAL_Driver/Src/stm32f1xx_hal_tim.c ****   * @param  htim TIM Base handle
 499:Drivers/STM32F1xx_HAL_Driver/Src/stm32f1xx_hal_tim.c ****   * @retval HAL status
 500:Drivers/STM32F1xx_HAL_Driver/Src/stm32f1xx_hal_tim.c ****   */
 501:Drivers/STM32F1xx_HAL_Driver/Src/stm32f1xx_hal_tim.c **** HAL_StatusTypeDef HAL_TIM_Base_Stop_IT(TIM_HandleTypeDef *htim)
 502:Drivers/STM32F1xx_HAL_Driver/Src/stm32f1xx_hal_tim.c **** {
 660              		.loc 1 502 1
 661              		.cfi_startproc
 662              		@ args = 0, pretend = 0, frame = 8
 663              		@ frame_needed = 1, uses_anonymous_args = 0
 664              		@ link register save eliminated.
 665 0000 80B4     		push	{r7}
 666              	.LCFI40:
 667              		.cfi_def_cfa_offset 4
 668              		.cfi_offset 7, -4
 669 0002 83B0     		sub	sp, sp, #12
 670              	.LCFI41:
 671              		.cfi_def_cfa_offset 16
 672 0004 00AF     		add	r7, sp, #0
 673              	.LCFI42:
 674              		.cfi_def_cfa_register 7
 675 0006 7860     		str	r0, [r7, #4]
 503:Drivers/STM32F1xx_HAL_Driver/Src/stm32f1xx_hal_tim.c ****   /* Check the parameters */
 504:Drivers/STM32F1xx_HAL_Driver/Src/stm32f1xx_hal_tim.c ****   assert_param(IS_TIM_INSTANCE(htim->Instance));
 505:Drivers/STM32F1xx_HAL_Driver/Src/stm32f1xx_hal_tim.c **** 
 506:Drivers/STM32F1xx_HAL_Driver/Src/stm32f1xx_hal_tim.c ****   /* Disable the TIM Update interrupt */
 507:Drivers/STM32F1xx_HAL_Driver/Src/stm32f1xx_hal_tim.c ****   __HAL_TIM_DISABLE_IT(htim, TIM_IT_UPDATE);
 676              		.loc 1 507 3
 677 0008 7B68     		ldr	r3, [r7, #4]
 678 000a 1B68     		ldr	r3, [r3]
 679 000c DA68     		ldr	r2, [r3, #12]
 680 000e 7B68     		ldr	r3, [r7, #4]
 681 0010 1B68     		ldr	r3, [r3]
 682 0012 22F00102 		bic	r2, r2, #1
 683 0016 DA60     		str	r2, [r3, #12]
 508:Drivers/STM32F1xx_HAL_Driver/Src/stm32f1xx_hal_tim.c **** 
 509:Drivers/STM32F1xx_HAL_Driver/Src/stm32f1xx_hal_tim.c ****   /* Disable the Peripheral */
 510:Drivers/STM32F1xx_HAL_Driver/Src/stm32f1xx_hal_tim.c ****   __HAL_TIM_DISABLE(htim);
 684              		.loc 1 510 3
 685 0018 7B68     		ldr	r3, [r7, #4]
 686 001a 1B68     		ldr	r3, [r3]
 687 001c 1A6A     		ldr	r2, [r3, #32]
 688 001e 41F21113 		movw	r3, #4369
 689 0022 1340     		ands	r3, r3, r2
 690 0024 002B     		cmp	r3, #0
 691 0026 0FD1     		bne	.L32
 692              		.loc 1 510 3 is_stmt 0 discriminator 1
 693 0028 7B68     		ldr	r3, [r7, #4]
 694 002a 1B68     		ldr	r3, [r3]
 695 002c 1A6A     		ldr	r2, [r3, #32]
 696 002e 40F24443 		movw	r3, #1092
 697 0032 1340     		ands	r3, r3, r2
 698 0034 002B     		cmp	r3, #0
 699 0036 07D1     		bne	.L32
 700              		.loc 1 510 3 discriminator 2
ARM GAS  /tmp/ccW22bxd.s 			page 22


 701 0038 7B68     		ldr	r3, [r7, #4]
 702 003a 1B68     		ldr	r3, [r3]
 703 003c 1A68     		ldr	r2, [r3]
 704 003e 7B68     		ldr	r3, [r7, #4]
 705 0040 1B68     		ldr	r3, [r3]
 706 0042 22F00102 		bic	r2, r2, #1
 707 0046 1A60     		str	r2, [r3]
 708              	.L32:
 511:Drivers/STM32F1xx_HAL_Driver/Src/stm32f1xx_hal_tim.c **** 
 512:Drivers/STM32F1xx_HAL_Driver/Src/stm32f1xx_hal_tim.c ****   /* Set the TIM state */
 513:Drivers/STM32F1xx_HAL_Driver/Src/stm32f1xx_hal_tim.c ****   htim->State = HAL_TIM_STATE_READY;
 709              		.loc 1 513 15 is_stmt 1
 710 0048 7B68     		ldr	r3, [r7, #4]
 711 004a 0122     		movs	r2, #1
 712 004c 83F83D20 		strb	r2, [r3, #61]
 514:Drivers/STM32F1xx_HAL_Driver/Src/stm32f1xx_hal_tim.c **** 
 515:Drivers/STM32F1xx_HAL_Driver/Src/stm32f1xx_hal_tim.c ****   /* Return function status */
 516:Drivers/STM32F1xx_HAL_Driver/Src/stm32f1xx_hal_tim.c ****   return HAL_OK;
 713              		.loc 1 516 10
 714 0050 0023     		movs	r3, #0
 517:Drivers/STM32F1xx_HAL_Driver/Src/stm32f1xx_hal_tim.c **** }
 715              		.loc 1 517 1
 716 0052 1846     		mov	r0, r3
 717 0054 0C37     		adds	r7, r7, #12
 718              	.LCFI43:
 719              		.cfi_def_cfa_offset 4
 720 0056 BD46     		mov	sp, r7
 721              	.LCFI44:
 722              		.cfi_def_cfa_register 13
 723              		@ sp needed
 724 0058 80BC     		pop	{r7}
 725              	.LCFI45:
 726              		.cfi_restore 7
 727              		.cfi_def_cfa_offset 0
 728 005a 7047     		bx	lr
 729              		.cfi_endproc
 730              	.LFE72:
 732              		.section	.text.HAL_TIM_Base_Start_DMA,"ax",%progbits
 733              		.align	1
 734              		.global	HAL_TIM_Base_Start_DMA
 735              		.syntax unified
 736              		.thumb
 737              		.thumb_func
 739              	HAL_TIM_Base_Start_DMA:
 740              	.LFB73:
 518:Drivers/STM32F1xx_HAL_Driver/Src/stm32f1xx_hal_tim.c **** 
 519:Drivers/STM32F1xx_HAL_Driver/Src/stm32f1xx_hal_tim.c **** /**
 520:Drivers/STM32F1xx_HAL_Driver/Src/stm32f1xx_hal_tim.c ****   * @brief  Starts the TIM Base generation in DMA mode.
 521:Drivers/STM32F1xx_HAL_Driver/Src/stm32f1xx_hal_tim.c ****   * @param  htim TIM Base handle
 522:Drivers/STM32F1xx_HAL_Driver/Src/stm32f1xx_hal_tim.c ****   * @param  pData The source Buffer address.
 523:Drivers/STM32F1xx_HAL_Driver/Src/stm32f1xx_hal_tim.c ****   * @param  Length The length of data to be transferred from memory to peripheral.
 524:Drivers/STM32F1xx_HAL_Driver/Src/stm32f1xx_hal_tim.c ****   * @retval HAL status
 525:Drivers/STM32F1xx_HAL_Driver/Src/stm32f1xx_hal_tim.c ****   */
 526:Drivers/STM32F1xx_HAL_Driver/Src/stm32f1xx_hal_tim.c **** HAL_StatusTypeDef HAL_TIM_Base_Start_DMA(TIM_HandleTypeDef *htim, const uint32_t *pData, uint16_t L
 527:Drivers/STM32F1xx_HAL_Driver/Src/stm32f1xx_hal_tim.c **** {
 741              		.loc 1 527 1
 742              		.cfi_startproc
ARM GAS  /tmp/ccW22bxd.s 			page 23


 743              		@ args = 0, pretend = 0, frame = 24
 744              		@ frame_needed = 1, uses_anonymous_args = 0
 745 0000 80B5     		push	{r7, lr}
 746              	.LCFI46:
 747              		.cfi_def_cfa_offset 8
 748              		.cfi_offset 7, -8
 749              		.cfi_offset 14, -4
 750 0002 86B0     		sub	sp, sp, #24
 751              	.LCFI47:
 752              		.cfi_def_cfa_offset 32
 753 0004 00AF     		add	r7, sp, #0
 754              	.LCFI48:
 755              		.cfi_def_cfa_register 7
 756 0006 F860     		str	r0, [r7, #12]
 757 0008 B960     		str	r1, [r7, #8]
 758 000a 1346     		mov	r3, r2
 759 000c FB80     		strh	r3, [r7, #6]	@ movhi
 528:Drivers/STM32F1xx_HAL_Driver/Src/stm32f1xx_hal_tim.c ****   uint32_t tmpsmcr;
 529:Drivers/STM32F1xx_HAL_Driver/Src/stm32f1xx_hal_tim.c **** 
 530:Drivers/STM32F1xx_HAL_Driver/Src/stm32f1xx_hal_tim.c ****   /* Check the parameters */
 531:Drivers/STM32F1xx_HAL_Driver/Src/stm32f1xx_hal_tim.c ****   assert_param(IS_TIM_DMA_INSTANCE(htim->Instance));
 532:Drivers/STM32F1xx_HAL_Driver/Src/stm32f1xx_hal_tim.c **** 
 533:Drivers/STM32F1xx_HAL_Driver/Src/stm32f1xx_hal_tim.c ****   /* Set the TIM state */
 534:Drivers/STM32F1xx_HAL_Driver/Src/stm32f1xx_hal_tim.c ****   if (htim->State == HAL_TIM_STATE_BUSY)
 760              		.loc 1 534 11
 761 000e FB68     		ldr	r3, [r7, #12]
 762 0010 93F83D30 		ldrb	r3, [r3, #61]
 763 0014 DBB2     		uxtb	r3, r3
 764              		.loc 1 534 6
 765 0016 022B     		cmp	r3, #2
 766 0018 01D1     		bne	.L35
 535:Drivers/STM32F1xx_HAL_Driver/Src/stm32f1xx_hal_tim.c ****   {
 536:Drivers/STM32F1xx_HAL_Driver/Src/stm32f1xx_hal_tim.c ****     return HAL_BUSY;
 767              		.loc 1 536 12
 768 001a 0223     		movs	r3, #2
 769 001c 66E0     		b	.L36
 770              	.L35:
 537:Drivers/STM32F1xx_HAL_Driver/Src/stm32f1xx_hal_tim.c ****   }
 538:Drivers/STM32F1xx_HAL_Driver/Src/stm32f1xx_hal_tim.c ****   else if (htim->State == HAL_TIM_STATE_READY)
 771              		.loc 1 538 16
 772 001e FB68     		ldr	r3, [r7, #12]
 773 0020 93F83D30 		ldrb	r3, [r3, #61]
 774 0024 DBB2     		uxtb	r3, r3
 775              		.loc 1 538 11
 776 0026 012B     		cmp	r3, #1
 777 0028 25D1     		bne	.L37
 539:Drivers/STM32F1xx_HAL_Driver/Src/stm32f1xx_hal_tim.c ****   {
 540:Drivers/STM32F1xx_HAL_Driver/Src/stm32f1xx_hal_tim.c ****     if ((pData == NULL) || (Length == 0U))
 778              		.loc 1 540 8
 779 002a BB68     		ldr	r3, [r7, #8]
 780 002c 002B     		cmp	r3, #0
 781 002e 02D0     		beq	.L38
 782              		.loc 1 540 25 discriminator 1
 783 0030 FB88     		ldrh	r3, [r7, #6]
 784 0032 002B     		cmp	r3, #0
 785 0034 01D1     		bne	.L39
 786              	.L38:
ARM GAS  /tmp/ccW22bxd.s 			page 24


 541:Drivers/STM32F1xx_HAL_Driver/Src/stm32f1xx_hal_tim.c ****     {
 542:Drivers/STM32F1xx_HAL_Driver/Src/stm32f1xx_hal_tim.c ****       return HAL_ERROR;
 787              		.loc 1 542 14
 788 0036 0123     		movs	r3, #1
 789 0038 58E0     		b	.L36
 790              	.L39:
 543:Drivers/STM32F1xx_HAL_Driver/Src/stm32f1xx_hal_tim.c ****     }
 544:Drivers/STM32F1xx_HAL_Driver/Src/stm32f1xx_hal_tim.c ****     else
 545:Drivers/STM32F1xx_HAL_Driver/Src/stm32f1xx_hal_tim.c ****     {
 546:Drivers/STM32F1xx_HAL_Driver/Src/stm32f1xx_hal_tim.c ****       htim->State = HAL_TIM_STATE_BUSY;
 791              		.loc 1 546 19
 792 003a FB68     		ldr	r3, [r7, #12]
 793 003c 0222     		movs	r2, #2
 794 003e 83F83D20 		strb	r2, [r3, #61]
 547:Drivers/STM32F1xx_HAL_Driver/Src/stm32f1xx_hal_tim.c ****     }
 548:Drivers/STM32F1xx_HAL_Driver/Src/stm32f1xx_hal_tim.c ****   }
 549:Drivers/STM32F1xx_HAL_Driver/Src/stm32f1xx_hal_tim.c ****   else
 550:Drivers/STM32F1xx_HAL_Driver/Src/stm32f1xx_hal_tim.c ****   {
 551:Drivers/STM32F1xx_HAL_Driver/Src/stm32f1xx_hal_tim.c ****     return HAL_ERROR;
 552:Drivers/STM32F1xx_HAL_Driver/Src/stm32f1xx_hal_tim.c ****   }
 553:Drivers/STM32F1xx_HAL_Driver/Src/stm32f1xx_hal_tim.c **** 
 554:Drivers/STM32F1xx_HAL_Driver/Src/stm32f1xx_hal_tim.c ****   /* Set the DMA Period elapsed callbacks */
 555:Drivers/STM32F1xx_HAL_Driver/Src/stm32f1xx_hal_tim.c ****   htim->hdma[TIM_DMA_ID_UPDATE]->XferCpltCallback = TIM_DMAPeriodElapsedCplt;
 795              		.loc 1 555 13
 796 0042 FB68     		ldr	r3, [r7, #12]
 797 0044 1B6A     		ldr	r3, [r3, #32]
 798              		.loc 1 555 51
 799 0046 2B4A     		ldr	r2, .L47
 800 0048 9A62     		str	r2, [r3, #40]
 556:Drivers/STM32F1xx_HAL_Driver/Src/stm32f1xx_hal_tim.c ****   htim->hdma[TIM_DMA_ID_UPDATE]->XferHalfCpltCallback = TIM_DMAPeriodElapsedHalfCplt;
 801              		.loc 1 556 13
 802 004a FB68     		ldr	r3, [r7, #12]
 803 004c 1B6A     		ldr	r3, [r3, #32]
 804              		.loc 1 556 55
 805 004e 2A4A     		ldr	r2, .L47+4
 806 0050 DA62     		str	r2, [r3, #44]
 557:Drivers/STM32F1xx_HAL_Driver/Src/stm32f1xx_hal_tim.c **** 
 558:Drivers/STM32F1xx_HAL_Driver/Src/stm32f1xx_hal_tim.c ****   /* Set the DMA error callback */
 559:Drivers/STM32F1xx_HAL_Driver/Src/stm32f1xx_hal_tim.c ****   htim->hdma[TIM_DMA_ID_UPDATE]->XferErrorCallback = TIM_DMAError ;
 807              		.loc 1 559 13
 808 0052 FB68     		ldr	r3, [r7, #12]
 809 0054 1B6A     		ldr	r3, [r3, #32]
 810              		.loc 1 559 52
 811 0056 294A     		ldr	r2, .L47+8
 812 0058 1A63     		str	r2, [r3, #48]
 560:Drivers/STM32F1xx_HAL_Driver/Src/stm32f1xx_hal_tim.c **** 
 561:Drivers/STM32F1xx_HAL_Driver/Src/stm32f1xx_hal_tim.c ****   /* Enable the DMA channel */
 562:Drivers/STM32F1xx_HAL_Driver/Src/stm32f1xx_hal_tim.c ****   if (HAL_DMA_Start_IT(htim->hdma[TIM_DMA_ID_UPDATE], (uint32_t)pData, (uint32_t)&htim->Instance->A
 813              		.loc 1 562 7
 814 005a FB68     		ldr	r3, [r7, #12]
 815 005c 186A     		ldr	r0, [r3, #32]
 816 005e B968     		ldr	r1, [r7, #8]
 817              		.loc 1 562 87
 818 0060 FB68     		ldr	r3, [r7, #12]
 819 0062 1B68     		ldr	r3, [r3]
 820              		.loc 1 562 82
 821 0064 2C33     		adds	r3, r3, #44
ARM GAS  /tmp/ccW22bxd.s 			page 25


 822              		.loc 1 562 7
 823 0066 1A46     		mov	r2, r3
 824 0068 FB88     		ldrh	r3, [r7, #6]
 825 006a FFF7FEFF 		bl	HAL_DMA_Start_IT
 826 006e 0346     		mov	r3, r0
 827              		.loc 1 562 6
 828 0070 002B     		cmp	r3, #0
 829 0072 04D0     		beq	.L41
 830 0074 01E0     		b	.L46
 831              	.L37:
 551:Drivers/STM32F1xx_HAL_Driver/Src/stm32f1xx_hal_tim.c ****   }
 832              		.loc 1 551 12
 833 0076 0123     		movs	r3, #1
 834 0078 38E0     		b	.L36
 835              	.L46:
 563:Drivers/STM32F1xx_HAL_Driver/Src/stm32f1xx_hal_tim.c ****                        Length) != HAL_OK)
 564:Drivers/STM32F1xx_HAL_Driver/Src/stm32f1xx_hal_tim.c ****   {
 565:Drivers/STM32F1xx_HAL_Driver/Src/stm32f1xx_hal_tim.c ****     /* Return error status */
 566:Drivers/STM32F1xx_HAL_Driver/Src/stm32f1xx_hal_tim.c ****     return HAL_ERROR;
 836              		.loc 1 566 12
 837 007a 0123     		movs	r3, #1
 838 007c 36E0     		b	.L36
 839              	.L41:
 567:Drivers/STM32F1xx_HAL_Driver/Src/stm32f1xx_hal_tim.c ****   }
 568:Drivers/STM32F1xx_HAL_Driver/Src/stm32f1xx_hal_tim.c **** 
 569:Drivers/STM32F1xx_HAL_Driver/Src/stm32f1xx_hal_tim.c ****   /* Enable the TIM Update DMA request */
 570:Drivers/STM32F1xx_HAL_Driver/Src/stm32f1xx_hal_tim.c ****   __HAL_TIM_ENABLE_DMA(htim, TIM_DMA_UPDATE);
 840              		.loc 1 570 3
 841 007e FB68     		ldr	r3, [r7, #12]
 842 0080 1B68     		ldr	r3, [r3]
 843 0082 DA68     		ldr	r2, [r3, #12]
 844 0084 FB68     		ldr	r3, [r7, #12]
 845 0086 1B68     		ldr	r3, [r3]
 846 0088 42F48072 		orr	r2, r2, #256
 847 008c DA60     		str	r2, [r3, #12]
 571:Drivers/STM32F1xx_HAL_Driver/Src/stm32f1xx_hal_tim.c **** 
 572:Drivers/STM32F1xx_HAL_Driver/Src/stm32f1xx_hal_tim.c ****   /* Enable the Peripheral, except in trigger mode where enable is automatically done with trigger 
 573:Drivers/STM32F1xx_HAL_Driver/Src/stm32f1xx_hal_tim.c ****   if (IS_TIM_SLAVE_INSTANCE(htim->Instance))
 848              		.loc 1 573 7
 849 008e FB68     		ldr	r3, [r7, #12]
 850 0090 1B68     		ldr	r3, [r3]
 851              		.loc 1 573 6
 852 0092 1B4A     		ldr	r2, .L47+12
 853 0094 9342     		cmp	r3, r2
 854 0096 0ED0     		beq	.L42
 855              		.loc 1 573 7 discriminator 1
 856 0098 FB68     		ldr	r3, [r7, #12]
 857 009a 1B68     		ldr	r3, [r3]
 858 009c B3F1804F 		cmp	r3, #1073741824
 859 00a0 09D0     		beq	.L42
 860              		.loc 1 573 7 is_stmt 0 discriminator 2
 861 00a2 FB68     		ldr	r3, [r7, #12]
 862 00a4 1B68     		ldr	r3, [r3]
 863 00a6 174A     		ldr	r2, .L47+16
 864 00a8 9342     		cmp	r3, r2
 865 00aa 04D0     		beq	.L42
 866              		.loc 1 573 7 discriminator 3
ARM GAS  /tmp/ccW22bxd.s 			page 26


 867 00ac FB68     		ldr	r3, [r7, #12]
 868 00ae 1B68     		ldr	r3, [r3]
 869 00b0 154A     		ldr	r2, .L47+20
 870 00b2 9342     		cmp	r3, r2
 871 00b4 11D1     		bne	.L43
 872              	.L42:
 574:Drivers/STM32F1xx_HAL_Driver/Src/stm32f1xx_hal_tim.c ****   {
 575:Drivers/STM32F1xx_HAL_Driver/Src/stm32f1xx_hal_tim.c ****     tmpsmcr = htim->Instance->SMCR & TIM_SMCR_SMS;
 873              		.loc 1 575 19 is_stmt 1
 874 00b6 FB68     		ldr	r3, [r7, #12]
 875 00b8 1B68     		ldr	r3, [r3]
 876              		.loc 1 575 29
 877 00ba 9B68     		ldr	r3, [r3, #8]
 878              		.loc 1 575 13
 879 00bc 03F00703 		and	r3, r3, #7
 880 00c0 7B61     		str	r3, [r7, #20]
 576:Drivers/STM32F1xx_HAL_Driver/Src/stm32f1xx_hal_tim.c ****     if (!IS_TIM_SLAVEMODE_TRIGGER_ENABLED(tmpsmcr))
 881              		.loc 1 576 8
 882 00c2 7B69     		ldr	r3, [r7, #20]
 883 00c4 062B     		cmp	r3, #6
 884 00c6 10D0     		beq	.L45
 577:Drivers/STM32F1xx_HAL_Driver/Src/stm32f1xx_hal_tim.c ****     {
 578:Drivers/STM32F1xx_HAL_Driver/Src/stm32f1xx_hal_tim.c ****       __HAL_TIM_ENABLE(htim);
 885              		.loc 1 578 7
 886 00c8 FB68     		ldr	r3, [r7, #12]
 887 00ca 1B68     		ldr	r3, [r3]
 888 00cc 1A68     		ldr	r2, [r3]
 889 00ce FB68     		ldr	r3, [r7, #12]
 890 00d0 1B68     		ldr	r3, [r3]
 891 00d2 42F00102 		orr	r2, r2, #1
 892 00d6 1A60     		str	r2, [r3]
 576:Drivers/STM32F1xx_HAL_Driver/Src/stm32f1xx_hal_tim.c ****     if (!IS_TIM_SLAVEMODE_TRIGGER_ENABLED(tmpsmcr))
 893              		.loc 1 576 8
 894 00d8 07E0     		b	.L45
 895              	.L43:
 579:Drivers/STM32F1xx_HAL_Driver/Src/stm32f1xx_hal_tim.c ****     }
 580:Drivers/STM32F1xx_HAL_Driver/Src/stm32f1xx_hal_tim.c ****   }
 581:Drivers/STM32F1xx_HAL_Driver/Src/stm32f1xx_hal_tim.c ****   else
 582:Drivers/STM32F1xx_HAL_Driver/Src/stm32f1xx_hal_tim.c ****   {
 583:Drivers/STM32F1xx_HAL_Driver/Src/stm32f1xx_hal_tim.c ****     __HAL_TIM_ENABLE(htim);
 896              		.loc 1 583 5
 897 00da FB68     		ldr	r3, [r7, #12]
 898 00dc 1B68     		ldr	r3, [r3]
 899 00de 1A68     		ldr	r2, [r3]
 900 00e0 FB68     		ldr	r3, [r7, #12]
 901 00e2 1B68     		ldr	r3, [r3]
 902 00e4 42F00102 		orr	r2, r2, #1
 903 00e8 1A60     		str	r2, [r3]
 904              	.L45:
 584:Drivers/STM32F1xx_HAL_Driver/Src/stm32f1xx_hal_tim.c ****   }
 585:Drivers/STM32F1xx_HAL_Driver/Src/stm32f1xx_hal_tim.c **** 
 586:Drivers/STM32F1xx_HAL_Driver/Src/stm32f1xx_hal_tim.c ****   /* Return function status */
 587:Drivers/STM32F1xx_HAL_Driver/Src/stm32f1xx_hal_tim.c ****   return HAL_OK;
 905              		.loc 1 587 10
 906 00ea 0023     		movs	r3, #0
 907              	.L36:
 588:Drivers/STM32F1xx_HAL_Driver/Src/stm32f1xx_hal_tim.c **** }
ARM GAS  /tmp/ccW22bxd.s 			page 27


 908              		.loc 1 588 1
 909 00ec 1846     		mov	r0, r3
 910 00ee 1837     		adds	r7, r7, #24
 911              	.LCFI49:
 912              		.cfi_def_cfa_offset 8
 913 00f0 BD46     		mov	sp, r7
 914              	.LCFI50:
 915              		.cfi_def_cfa_register 13
 916              		@ sp needed
 917 00f2 80BD     		pop	{r7, pc}
 918              	.L48:
 919              		.align	2
 920              	.L47:
 921 00f4 00000000 		.word	TIM_DMAPeriodElapsedCplt
 922 00f8 00000000 		.word	TIM_DMAPeriodElapsedHalfCplt
 923 00fc 00000000 		.word	TIM_DMAError
 924 0100 002C0140 		.word	1073818624
 925 0104 00040040 		.word	1073742848
 926 0108 00080040 		.word	1073743872
 927              		.cfi_endproc
 928              	.LFE73:
 930              		.section	.text.HAL_TIM_Base_Stop_DMA,"ax",%progbits
 931              		.align	1
 932              		.global	HAL_TIM_Base_Stop_DMA
 933              		.syntax unified
 934              		.thumb
 935              		.thumb_func
 937              	HAL_TIM_Base_Stop_DMA:
 938              	.LFB74:
 589:Drivers/STM32F1xx_HAL_Driver/Src/stm32f1xx_hal_tim.c **** 
 590:Drivers/STM32F1xx_HAL_Driver/Src/stm32f1xx_hal_tim.c **** /**
 591:Drivers/STM32F1xx_HAL_Driver/Src/stm32f1xx_hal_tim.c ****   * @brief  Stops the TIM Base generation in DMA mode.
 592:Drivers/STM32F1xx_HAL_Driver/Src/stm32f1xx_hal_tim.c ****   * @param  htim TIM Base handle
 593:Drivers/STM32F1xx_HAL_Driver/Src/stm32f1xx_hal_tim.c ****   * @retval HAL status
 594:Drivers/STM32F1xx_HAL_Driver/Src/stm32f1xx_hal_tim.c ****   */
 595:Drivers/STM32F1xx_HAL_Driver/Src/stm32f1xx_hal_tim.c **** HAL_StatusTypeDef HAL_TIM_Base_Stop_DMA(TIM_HandleTypeDef *htim)
 596:Drivers/STM32F1xx_HAL_Driver/Src/stm32f1xx_hal_tim.c **** {
 939              		.loc 1 596 1
 940              		.cfi_startproc
 941              		@ args = 0, pretend = 0, frame = 8
 942              		@ frame_needed = 1, uses_anonymous_args = 0
 943 0000 80B5     		push	{r7, lr}
 944              	.LCFI51:
 945              		.cfi_def_cfa_offset 8
 946              		.cfi_offset 7, -8
 947              		.cfi_offset 14, -4
 948 0002 82B0     		sub	sp, sp, #8
 949              	.LCFI52:
 950              		.cfi_def_cfa_offset 16
 951 0004 00AF     		add	r7, sp, #0
 952              	.LCFI53:
 953              		.cfi_def_cfa_register 7
 954 0006 7860     		str	r0, [r7, #4]
 597:Drivers/STM32F1xx_HAL_Driver/Src/stm32f1xx_hal_tim.c ****   /* Check the parameters */
 598:Drivers/STM32F1xx_HAL_Driver/Src/stm32f1xx_hal_tim.c ****   assert_param(IS_TIM_DMA_INSTANCE(htim->Instance));
 599:Drivers/STM32F1xx_HAL_Driver/Src/stm32f1xx_hal_tim.c **** 
 600:Drivers/STM32F1xx_HAL_Driver/Src/stm32f1xx_hal_tim.c ****   /* Disable the TIM Update DMA request */
ARM GAS  /tmp/ccW22bxd.s 			page 28


 601:Drivers/STM32F1xx_HAL_Driver/Src/stm32f1xx_hal_tim.c ****   __HAL_TIM_DISABLE_DMA(htim, TIM_DMA_UPDATE);
 955              		.loc 1 601 3
 956 0008 7B68     		ldr	r3, [r7, #4]
 957 000a 1B68     		ldr	r3, [r3]
 958 000c DA68     		ldr	r2, [r3, #12]
 959 000e 7B68     		ldr	r3, [r7, #4]
 960 0010 1B68     		ldr	r3, [r3]
 961 0012 22F48072 		bic	r2, r2, #256
 962 0016 DA60     		str	r2, [r3, #12]
 602:Drivers/STM32F1xx_HAL_Driver/Src/stm32f1xx_hal_tim.c **** 
 603:Drivers/STM32F1xx_HAL_Driver/Src/stm32f1xx_hal_tim.c ****   (void)HAL_DMA_Abort_IT(htim->hdma[TIM_DMA_ID_UPDATE]);
 963              		.loc 1 603 9
 964 0018 7B68     		ldr	r3, [r7, #4]
 965 001a 1B6A     		ldr	r3, [r3, #32]
 966 001c 1846     		mov	r0, r3
 967 001e FFF7FEFF 		bl	HAL_DMA_Abort_IT
 604:Drivers/STM32F1xx_HAL_Driver/Src/stm32f1xx_hal_tim.c **** 
 605:Drivers/STM32F1xx_HAL_Driver/Src/stm32f1xx_hal_tim.c ****   /* Disable the Peripheral */
 606:Drivers/STM32F1xx_HAL_Driver/Src/stm32f1xx_hal_tim.c ****   __HAL_TIM_DISABLE(htim);
 968              		.loc 1 606 3
 969 0022 7B68     		ldr	r3, [r7, #4]
 970 0024 1B68     		ldr	r3, [r3]
 971 0026 1A6A     		ldr	r2, [r3, #32]
 972 0028 41F21113 		movw	r3, #4369
 973 002c 1340     		ands	r3, r3, r2
 974 002e 002B     		cmp	r3, #0
 975 0030 0FD1     		bne	.L50
 976              		.loc 1 606 3 is_stmt 0 discriminator 1
 977 0032 7B68     		ldr	r3, [r7, #4]
 978 0034 1B68     		ldr	r3, [r3]
 979 0036 1A6A     		ldr	r2, [r3, #32]
 980 0038 40F24443 		movw	r3, #1092
 981 003c 1340     		ands	r3, r3, r2
 982 003e 002B     		cmp	r3, #0
 983 0040 07D1     		bne	.L50
 984              		.loc 1 606 3 discriminator 2
 985 0042 7B68     		ldr	r3, [r7, #4]
 986 0044 1B68     		ldr	r3, [r3]
 987 0046 1A68     		ldr	r2, [r3]
 988 0048 7B68     		ldr	r3, [r7, #4]
 989 004a 1B68     		ldr	r3, [r3]
 990 004c 22F00102 		bic	r2, r2, #1
 991 0050 1A60     		str	r2, [r3]
 992              	.L50:
 607:Drivers/STM32F1xx_HAL_Driver/Src/stm32f1xx_hal_tim.c **** 
 608:Drivers/STM32F1xx_HAL_Driver/Src/stm32f1xx_hal_tim.c ****   /* Set the TIM state */
 609:Drivers/STM32F1xx_HAL_Driver/Src/stm32f1xx_hal_tim.c ****   htim->State = HAL_TIM_STATE_READY;
 993              		.loc 1 609 15 is_stmt 1
 994 0052 7B68     		ldr	r3, [r7, #4]
 995 0054 0122     		movs	r2, #1
 996 0056 83F83D20 		strb	r2, [r3, #61]
 610:Drivers/STM32F1xx_HAL_Driver/Src/stm32f1xx_hal_tim.c **** 
 611:Drivers/STM32F1xx_HAL_Driver/Src/stm32f1xx_hal_tim.c ****   /* Return function status */
 612:Drivers/STM32F1xx_HAL_Driver/Src/stm32f1xx_hal_tim.c ****   return HAL_OK;
 997              		.loc 1 612 10
 998 005a 0023     		movs	r3, #0
 613:Drivers/STM32F1xx_HAL_Driver/Src/stm32f1xx_hal_tim.c **** }
ARM GAS  /tmp/ccW22bxd.s 			page 29


 999              		.loc 1 613 1
 1000 005c 1846     		mov	r0, r3
 1001 005e 0837     		adds	r7, r7, #8
 1002              	.LCFI54:
 1003              		.cfi_def_cfa_offset 8
 1004 0060 BD46     		mov	sp, r7
 1005              	.LCFI55:
 1006              		.cfi_def_cfa_register 13
 1007              		@ sp needed
 1008 0062 80BD     		pop	{r7, pc}
 1009              		.cfi_endproc
 1010              	.LFE74:
 1012              		.section	.text.HAL_TIM_OC_Init,"ax",%progbits
 1013              		.align	1
 1014              		.global	HAL_TIM_OC_Init
 1015              		.syntax unified
 1016              		.thumb
 1017              		.thumb_func
 1019              	HAL_TIM_OC_Init:
 1020              	.LFB75:
 614:Drivers/STM32F1xx_HAL_Driver/Src/stm32f1xx_hal_tim.c **** 
 615:Drivers/STM32F1xx_HAL_Driver/Src/stm32f1xx_hal_tim.c **** /**
 616:Drivers/STM32F1xx_HAL_Driver/Src/stm32f1xx_hal_tim.c ****   * @}
 617:Drivers/STM32F1xx_HAL_Driver/Src/stm32f1xx_hal_tim.c ****   */
 618:Drivers/STM32F1xx_HAL_Driver/Src/stm32f1xx_hal_tim.c **** 
 619:Drivers/STM32F1xx_HAL_Driver/Src/stm32f1xx_hal_tim.c **** /** @defgroup TIM_Exported_Functions_Group2 TIM Output Compare functions
 620:Drivers/STM32F1xx_HAL_Driver/Src/stm32f1xx_hal_tim.c ****   *  @brief    TIM Output Compare functions
 621:Drivers/STM32F1xx_HAL_Driver/Src/stm32f1xx_hal_tim.c ****   *
 622:Drivers/STM32F1xx_HAL_Driver/Src/stm32f1xx_hal_tim.c **** @verbatim
 623:Drivers/STM32F1xx_HAL_Driver/Src/stm32f1xx_hal_tim.c ****   ==============================================================================
 624:Drivers/STM32F1xx_HAL_Driver/Src/stm32f1xx_hal_tim.c ****                   ##### TIM Output Compare functions #####
 625:Drivers/STM32F1xx_HAL_Driver/Src/stm32f1xx_hal_tim.c ****   ==============================================================================
 626:Drivers/STM32F1xx_HAL_Driver/Src/stm32f1xx_hal_tim.c ****   [..]
 627:Drivers/STM32F1xx_HAL_Driver/Src/stm32f1xx_hal_tim.c ****     This section provides functions allowing to:
 628:Drivers/STM32F1xx_HAL_Driver/Src/stm32f1xx_hal_tim.c ****     (+) Initialize and configure the TIM Output Compare.
 629:Drivers/STM32F1xx_HAL_Driver/Src/stm32f1xx_hal_tim.c ****     (+) De-initialize the TIM Output Compare.
 630:Drivers/STM32F1xx_HAL_Driver/Src/stm32f1xx_hal_tim.c ****     (+) Start the TIM Output Compare.
 631:Drivers/STM32F1xx_HAL_Driver/Src/stm32f1xx_hal_tim.c ****     (+) Stop the TIM Output Compare.
 632:Drivers/STM32F1xx_HAL_Driver/Src/stm32f1xx_hal_tim.c ****     (+) Start the TIM Output Compare and enable interrupt.
 633:Drivers/STM32F1xx_HAL_Driver/Src/stm32f1xx_hal_tim.c ****     (+) Stop the TIM Output Compare and disable interrupt.
 634:Drivers/STM32F1xx_HAL_Driver/Src/stm32f1xx_hal_tim.c ****     (+) Start the TIM Output Compare and enable DMA transfer.
 635:Drivers/STM32F1xx_HAL_Driver/Src/stm32f1xx_hal_tim.c ****     (+) Stop the TIM Output Compare and disable DMA transfer.
 636:Drivers/STM32F1xx_HAL_Driver/Src/stm32f1xx_hal_tim.c **** 
 637:Drivers/STM32F1xx_HAL_Driver/Src/stm32f1xx_hal_tim.c **** @endverbatim
 638:Drivers/STM32F1xx_HAL_Driver/Src/stm32f1xx_hal_tim.c ****   * @{
 639:Drivers/STM32F1xx_HAL_Driver/Src/stm32f1xx_hal_tim.c ****   */
 640:Drivers/STM32F1xx_HAL_Driver/Src/stm32f1xx_hal_tim.c **** /**
 641:Drivers/STM32F1xx_HAL_Driver/Src/stm32f1xx_hal_tim.c ****   * @brief  Initializes the TIM Output Compare according to the specified
 642:Drivers/STM32F1xx_HAL_Driver/Src/stm32f1xx_hal_tim.c ****   *         parameters in the TIM_HandleTypeDef and initializes the associated handle.
 643:Drivers/STM32F1xx_HAL_Driver/Src/stm32f1xx_hal_tim.c ****   * @note   Switching from Center Aligned counter mode to Edge counter mode (or reverse)
 644:Drivers/STM32F1xx_HAL_Driver/Src/stm32f1xx_hal_tim.c ****   *         requires a timer reset to avoid unexpected direction
 645:Drivers/STM32F1xx_HAL_Driver/Src/stm32f1xx_hal_tim.c ****   *         due to DIR bit readonly in center aligned mode.
 646:Drivers/STM32F1xx_HAL_Driver/Src/stm32f1xx_hal_tim.c ****   *         Ex: call @ref HAL_TIM_OC_DeInit() before HAL_TIM_OC_Init()
 647:Drivers/STM32F1xx_HAL_Driver/Src/stm32f1xx_hal_tim.c ****   * @param  htim TIM Output Compare handle
 648:Drivers/STM32F1xx_HAL_Driver/Src/stm32f1xx_hal_tim.c ****   * @retval HAL status
 649:Drivers/STM32F1xx_HAL_Driver/Src/stm32f1xx_hal_tim.c ****   */
 650:Drivers/STM32F1xx_HAL_Driver/Src/stm32f1xx_hal_tim.c **** HAL_StatusTypeDef HAL_TIM_OC_Init(TIM_HandleTypeDef *htim)
ARM GAS  /tmp/ccW22bxd.s 			page 30


 651:Drivers/STM32F1xx_HAL_Driver/Src/stm32f1xx_hal_tim.c **** {
 1021              		.loc 1 651 1
 1022              		.cfi_startproc
 1023              		@ args = 0, pretend = 0, frame = 8
 1024              		@ frame_needed = 1, uses_anonymous_args = 0
 1025 0000 80B5     		push	{r7, lr}
 1026              	.LCFI56:
 1027              		.cfi_def_cfa_offset 8
 1028              		.cfi_offset 7, -8
 1029              		.cfi_offset 14, -4
 1030 0002 82B0     		sub	sp, sp, #8
 1031              	.LCFI57:
 1032              		.cfi_def_cfa_offset 16
 1033 0004 00AF     		add	r7, sp, #0
 1034              	.LCFI58:
 1035              		.cfi_def_cfa_register 7
 1036 0006 7860     		str	r0, [r7, #4]
 652:Drivers/STM32F1xx_HAL_Driver/Src/stm32f1xx_hal_tim.c ****   /* Check the TIM handle allocation */
 653:Drivers/STM32F1xx_HAL_Driver/Src/stm32f1xx_hal_tim.c ****   if (htim == NULL)
 1037              		.loc 1 653 6
 1038 0008 7B68     		ldr	r3, [r7, #4]
 1039 000a 002B     		cmp	r3, #0
 1040 000c 01D1     		bne	.L53
 654:Drivers/STM32F1xx_HAL_Driver/Src/stm32f1xx_hal_tim.c ****   {
 655:Drivers/STM32F1xx_HAL_Driver/Src/stm32f1xx_hal_tim.c ****     return HAL_ERROR;
 1041              		.loc 1 655 12
 1042 000e 0123     		movs	r3, #1
 1043 0010 41E0     		b	.L54
 1044              	.L53:
 656:Drivers/STM32F1xx_HAL_Driver/Src/stm32f1xx_hal_tim.c ****   }
 657:Drivers/STM32F1xx_HAL_Driver/Src/stm32f1xx_hal_tim.c **** 
 658:Drivers/STM32F1xx_HAL_Driver/Src/stm32f1xx_hal_tim.c ****   /* Check the parameters */
 659:Drivers/STM32F1xx_HAL_Driver/Src/stm32f1xx_hal_tim.c ****   assert_param(IS_TIM_INSTANCE(htim->Instance));
 660:Drivers/STM32F1xx_HAL_Driver/Src/stm32f1xx_hal_tim.c ****   assert_param(IS_TIM_COUNTER_MODE(htim->Init.CounterMode));
 661:Drivers/STM32F1xx_HAL_Driver/Src/stm32f1xx_hal_tim.c ****   assert_param(IS_TIM_CLOCKDIVISION_DIV(htim->Init.ClockDivision));
 662:Drivers/STM32F1xx_HAL_Driver/Src/stm32f1xx_hal_tim.c ****   assert_param(IS_TIM_PERIOD(htim->Init.Period));
 663:Drivers/STM32F1xx_HAL_Driver/Src/stm32f1xx_hal_tim.c ****   assert_param(IS_TIM_AUTORELOAD_PRELOAD(htim->Init.AutoReloadPreload));
 664:Drivers/STM32F1xx_HAL_Driver/Src/stm32f1xx_hal_tim.c **** 
 665:Drivers/STM32F1xx_HAL_Driver/Src/stm32f1xx_hal_tim.c ****   if (htim->State == HAL_TIM_STATE_RESET)
 1045              		.loc 1 665 11
 1046 0012 7B68     		ldr	r3, [r7, #4]
 1047 0014 93F83D30 		ldrb	r3, [r3, #61]
 1048 0018 DBB2     		uxtb	r3, r3
 1049              		.loc 1 665 6
 1050 001a 002B     		cmp	r3, #0
 1051 001c 06D1     		bne	.L55
 666:Drivers/STM32F1xx_HAL_Driver/Src/stm32f1xx_hal_tim.c ****   {
 667:Drivers/STM32F1xx_HAL_Driver/Src/stm32f1xx_hal_tim.c ****     /* Allocate lock resource and initialize it */
 668:Drivers/STM32F1xx_HAL_Driver/Src/stm32f1xx_hal_tim.c ****     htim->Lock = HAL_UNLOCKED;
 1052              		.loc 1 668 16
 1053 001e 7B68     		ldr	r3, [r7, #4]
 1054 0020 0022     		movs	r2, #0
 1055 0022 83F83C20 		strb	r2, [r3, #60]
 669:Drivers/STM32F1xx_HAL_Driver/Src/stm32f1xx_hal_tim.c **** 
 670:Drivers/STM32F1xx_HAL_Driver/Src/stm32f1xx_hal_tim.c **** #if (USE_HAL_TIM_REGISTER_CALLBACKS == 1)
 671:Drivers/STM32F1xx_HAL_Driver/Src/stm32f1xx_hal_tim.c ****     /* Reset interrupt callbacks to legacy weak callbacks */
 672:Drivers/STM32F1xx_HAL_Driver/Src/stm32f1xx_hal_tim.c ****     TIM_ResetCallback(htim);
ARM GAS  /tmp/ccW22bxd.s 			page 31


 673:Drivers/STM32F1xx_HAL_Driver/Src/stm32f1xx_hal_tim.c **** 
 674:Drivers/STM32F1xx_HAL_Driver/Src/stm32f1xx_hal_tim.c ****     if (htim->OC_MspInitCallback == NULL)
 675:Drivers/STM32F1xx_HAL_Driver/Src/stm32f1xx_hal_tim.c ****     {
 676:Drivers/STM32F1xx_HAL_Driver/Src/stm32f1xx_hal_tim.c ****       htim->OC_MspInitCallback = HAL_TIM_OC_MspInit;
 677:Drivers/STM32F1xx_HAL_Driver/Src/stm32f1xx_hal_tim.c ****     }
 678:Drivers/STM32F1xx_HAL_Driver/Src/stm32f1xx_hal_tim.c ****     /* Init the low level hardware : GPIO, CLOCK, NVIC */
 679:Drivers/STM32F1xx_HAL_Driver/Src/stm32f1xx_hal_tim.c ****     htim->OC_MspInitCallback(htim);
 680:Drivers/STM32F1xx_HAL_Driver/Src/stm32f1xx_hal_tim.c **** #else
 681:Drivers/STM32F1xx_HAL_Driver/Src/stm32f1xx_hal_tim.c ****     /* Init the low level hardware : GPIO, CLOCK, NVIC and DMA */
 682:Drivers/STM32F1xx_HAL_Driver/Src/stm32f1xx_hal_tim.c ****     HAL_TIM_OC_MspInit(htim);
 1056              		.loc 1 682 5
 1057 0026 7868     		ldr	r0, [r7, #4]
 1058 0028 FFF7FEFF 		bl	HAL_TIM_OC_MspInit
 1059              	.L55:
 683:Drivers/STM32F1xx_HAL_Driver/Src/stm32f1xx_hal_tim.c **** #endif /* USE_HAL_TIM_REGISTER_CALLBACKS */
 684:Drivers/STM32F1xx_HAL_Driver/Src/stm32f1xx_hal_tim.c ****   }
 685:Drivers/STM32F1xx_HAL_Driver/Src/stm32f1xx_hal_tim.c **** 
 686:Drivers/STM32F1xx_HAL_Driver/Src/stm32f1xx_hal_tim.c ****   /* Set the TIM state */
 687:Drivers/STM32F1xx_HAL_Driver/Src/stm32f1xx_hal_tim.c ****   htim->State = HAL_TIM_STATE_BUSY;
 1060              		.loc 1 687 15
 1061 002c 7B68     		ldr	r3, [r7, #4]
 1062 002e 0222     		movs	r2, #2
 1063 0030 83F83D20 		strb	r2, [r3, #61]
 688:Drivers/STM32F1xx_HAL_Driver/Src/stm32f1xx_hal_tim.c **** 
 689:Drivers/STM32F1xx_HAL_Driver/Src/stm32f1xx_hal_tim.c ****   /* Init the base time for the Output Compare */
 690:Drivers/STM32F1xx_HAL_Driver/Src/stm32f1xx_hal_tim.c ****   TIM_Base_SetConfig(htim->Instance,  &htim->Init);
 1064              		.loc 1 690 3
 1065 0034 7B68     		ldr	r3, [r7, #4]
 1066 0036 1A68     		ldr	r2, [r3]
 1067              		.loc 1 690 39
 1068 0038 7B68     		ldr	r3, [r7, #4]
 1069 003a 0433     		adds	r3, r3, #4
 1070              		.loc 1 690 3
 1071 003c 1946     		mov	r1, r3
 1072 003e 1046     		mov	r0, r2
 1073 0040 FFF7FEFF 		bl	TIM_Base_SetConfig
 691:Drivers/STM32F1xx_HAL_Driver/Src/stm32f1xx_hal_tim.c **** 
 692:Drivers/STM32F1xx_HAL_Driver/Src/stm32f1xx_hal_tim.c ****   /* Initialize the DMA burst operation state */
 693:Drivers/STM32F1xx_HAL_Driver/Src/stm32f1xx_hal_tim.c ****   htim->DMABurstState = HAL_DMA_BURST_STATE_READY;
 1074              		.loc 1 693 23
 1075 0044 7B68     		ldr	r3, [r7, #4]
 1076 0046 0122     		movs	r2, #1
 1077 0048 83F84620 		strb	r2, [r3, #70]
 694:Drivers/STM32F1xx_HAL_Driver/Src/stm32f1xx_hal_tim.c **** 
 695:Drivers/STM32F1xx_HAL_Driver/Src/stm32f1xx_hal_tim.c ****   /* Initialize the TIM channels state */
 696:Drivers/STM32F1xx_HAL_Driver/Src/stm32f1xx_hal_tim.c ****   TIM_CHANNEL_STATE_SET_ALL(htim, HAL_TIM_CHANNEL_STATE_READY);
 1078              		.loc 1 696 3
 1079 004c 7B68     		ldr	r3, [r7, #4]
 1080 004e 0122     		movs	r2, #1
 1081 0050 83F83E20 		strb	r2, [r3, #62]
 1082 0054 7B68     		ldr	r3, [r7, #4]
 1083 0056 0122     		movs	r2, #1
 1084 0058 83F83F20 		strb	r2, [r3, #63]
 1085 005c 7B68     		ldr	r3, [r7, #4]
 1086 005e 0122     		movs	r2, #1
 1087 0060 83F84020 		strb	r2, [r3, #64]
 1088 0064 7B68     		ldr	r3, [r7, #4]
ARM GAS  /tmp/ccW22bxd.s 			page 32


 1089 0066 0122     		movs	r2, #1
 1090 0068 83F84120 		strb	r2, [r3, #65]
 697:Drivers/STM32F1xx_HAL_Driver/Src/stm32f1xx_hal_tim.c ****   TIM_CHANNEL_N_STATE_SET_ALL(htim, HAL_TIM_CHANNEL_STATE_READY);
 1091              		.loc 1 697 3
 1092 006c 7B68     		ldr	r3, [r7, #4]
 1093 006e 0122     		movs	r2, #1
 1094 0070 83F84220 		strb	r2, [r3, #66]
 1095 0074 7B68     		ldr	r3, [r7, #4]
 1096 0076 0122     		movs	r2, #1
 1097 0078 83F84320 		strb	r2, [r3, #67]
 1098 007c 7B68     		ldr	r3, [r7, #4]
 1099 007e 0122     		movs	r2, #1
 1100 0080 83F84420 		strb	r2, [r3, #68]
 1101 0084 7B68     		ldr	r3, [r7, #4]
 1102 0086 0122     		movs	r2, #1
 1103 0088 83F84520 		strb	r2, [r3, #69]
 698:Drivers/STM32F1xx_HAL_Driver/Src/stm32f1xx_hal_tim.c **** 
 699:Drivers/STM32F1xx_HAL_Driver/Src/stm32f1xx_hal_tim.c ****   /* Initialize the TIM state*/
 700:Drivers/STM32F1xx_HAL_Driver/Src/stm32f1xx_hal_tim.c ****   htim->State = HAL_TIM_STATE_READY;
 1104              		.loc 1 700 15
 1105 008c 7B68     		ldr	r3, [r7, #4]
 1106 008e 0122     		movs	r2, #1
 1107 0090 83F83D20 		strb	r2, [r3, #61]
 701:Drivers/STM32F1xx_HAL_Driver/Src/stm32f1xx_hal_tim.c **** 
 702:Drivers/STM32F1xx_HAL_Driver/Src/stm32f1xx_hal_tim.c ****   return HAL_OK;
 1108              		.loc 1 702 10
 1109 0094 0023     		movs	r3, #0
 1110              	.L54:
 703:Drivers/STM32F1xx_HAL_Driver/Src/stm32f1xx_hal_tim.c **** }
 1111              		.loc 1 703 1
 1112 0096 1846     		mov	r0, r3
 1113 0098 0837     		adds	r7, r7, #8
 1114              	.LCFI59:
 1115              		.cfi_def_cfa_offset 8
 1116 009a BD46     		mov	sp, r7
 1117              	.LCFI60:
 1118              		.cfi_def_cfa_register 13
 1119              		@ sp needed
 1120 009c 80BD     		pop	{r7, pc}
 1121              		.cfi_endproc
 1122              	.LFE75:
 1124              		.section	.text.HAL_TIM_OC_DeInit,"ax",%progbits
 1125              		.align	1
 1126              		.global	HAL_TIM_OC_DeInit
 1127              		.syntax unified
 1128              		.thumb
 1129              		.thumb_func
 1131              	HAL_TIM_OC_DeInit:
 1132              	.LFB76:
 704:Drivers/STM32F1xx_HAL_Driver/Src/stm32f1xx_hal_tim.c **** 
 705:Drivers/STM32F1xx_HAL_Driver/Src/stm32f1xx_hal_tim.c **** /**
 706:Drivers/STM32F1xx_HAL_Driver/Src/stm32f1xx_hal_tim.c ****   * @brief  DeInitializes the TIM peripheral
 707:Drivers/STM32F1xx_HAL_Driver/Src/stm32f1xx_hal_tim.c ****   * @param  htim TIM Output Compare handle
 708:Drivers/STM32F1xx_HAL_Driver/Src/stm32f1xx_hal_tim.c ****   * @retval HAL status
 709:Drivers/STM32F1xx_HAL_Driver/Src/stm32f1xx_hal_tim.c ****   */
 710:Drivers/STM32F1xx_HAL_Driver/Src/stm32f1xx_hal_tim.c **** HAL_StatusTypeDef HAL_TIM_OC_DeInit(TIM_HandleTypeDef *htim)
 711:Drivers/STM32F1xx_HAL_Driver/Src/stm32f1xx_hal_tim.c **** {
ARM GAS  /tmp/ccW22bxd.s 			page 33


 1133              		.loc 1 711 1
 1134              		.cfi_startproc
 1135              		@ args = 0, pretend = 0, frame = 8
 1136              		@ frame_needed = 1, uses_anonymous_args = 0
 1137 0000 80B5     		push	{r7, lr}
 1138              	.LCFI61:
 1139              		.cfi_def_cfa_offset 8
 1140              		.cfi_offset 7, -8
 1141              		.cfi_offset 14, -4
 1142 0002 82B0     		sub	sp, sp, #8
 1143              	.LCFI62:
 1144              		.cfi_def_cfa_offset 16
 1145 0004 00AF     		add	r7, sp, #0
 1146              	.LCFI63:
 1147              		.cfi_def_cfa_register 7
 1148 0006 7860     		str	r0, [r7, #4]
 712:Drivers/STM32F1xx_HAL_Driver/Src/stm32f1xx_hal_tim.c ****   /* Check the parameters */
 713:Drivers/STM32F1xx_HAL_Driver/Src/stm32f1xx_hal_tim.c ****   assert_param(IS_TIM_INSTANCE(htim->Instance));
 714:Drivers/STM32F1xx_HAL_Driver/Src/stm32f1xx_hal_tim.c **** 
 715:Drivers/STM32F1xx_HAL_Driver/Src/stm32f1xx_hal_tim.c ****   htim->State = HAL_TIM_STATE_BUSY;
 1149              		.loc 1 715 15
 1150 0008 7B68     		ldr	r3, [r7, #4]
 1151 000a 0222     		movs	r2, #2
 1152 000c 83F83D20 		strb	r2, [r3, #61]
 716:Drivers/STM32F1xx_HAL_Driver/Src/stm32f1xx_hal_tim.c **** 
 717:Drivers/STM32F1xx_HAL_Driver/Src/stm32f1xx_hal_tim.c ****   /* Disable the TIM Peripheral Clock */
 718:Drivers/STM32F1xx_HAL_Driver/Src/stm32f1xx_hal_tim.c ****   __HAL_TIM_DISABLE(htim);
 1153              		.loc 1 718 3
 1154 0010 7B68     		ldr	r3, [r7, #4]
 1155 0012 1B68     		ldr	r3, [r3]
 1156 0014 1A6A     		ldr	r2, [r3, #32]
 1157 0016 41F21113 		movw	r3, #4369
 1158 001a 1340     		ands	r3, r3, r2
 1159 001c 002B     		cmp	r3, #0
 1160 001e 0FD1     		bne	.L57
 1161              		.loc 1 718 3 is_stmt 0 discriminator 1
 1162 0020 7B68     		ldr	r3, [r7, #4]
 1163 0022 1B68     		ldr	r3, [r3]
 1164 0024 1A6A     		ldr	r2, [r3, #32]
 1165 0026 40F24443 		movw	r3, #1092
 1166 002a 1340     		ands	r3, r3, r2
 1167 002c 002B     		cmp	r3, #0
 1168 002e 07D1     		bne	.L57
 1169              		.loc 1 718 3 discriminator 2
 1170 0030 7B68     		ldr	r3, [r7, #4]
 1171 0032 1B68     		ldr	r3, [r3]
 1172 0034 1A68     		ldr	r2, [r3]
 1173 0036 7B68     		ldr	r3, [r7, #4]
 1174 0038 1B68     		ldr	r3, [r3]
 1175 003a 22F00102 		bic	r2, r2, #1
 1176 003e 1A60     		str	r2, [r3]
 1177              	.L57:
 719:Drivers/STM32F1xx_HAL_Driver/Src/stm32f1xx_hal_tim.c **** 
 720:Drivers/STM32F1xx_HAL_Driver/Src/stm32f1xx_hal_tim.c **** #if (USE_HAL_TIM_REGISTER_CALLBACKS == 1)
 721:Drivers/STM32F1xx_HAL_Driver/Src/stm32f1xx_hal_tim.c ****   if (htim->OC_MspDeInitCallback == NULL)
 722:Drivers/STM32F1xx_HAL_Driver/Src/stm32f1xx_hal_tim.c ****   {
 723:Drivers/STM32F1xx_HAL_Driver/Src/stm32f1xx_hal_tim.c ****     htim->OC_MspDeInitCallback = HAL_TIM_OC_MspDeInit;
ARM GAS  /tmp/ccW22bxd.s 			page 34


 724:Drivers/STM32F1xx_HAL_Driver/Src/stm32f1xx_hal_tim.c ****   }
 725:Drivers/STM32F1xx_HAL_Driver/Src/stm32f1xx_hal_tim.c ****   /* DeInit the low level hardware */
 726:Drivers/STM32F1xx_HAL_Driver/Src/stm32f1xx_hal_tim.c ****   htim->OC_MspDeInitCallback(htim);
 727:Drivers/STM32F1xx_HAL_Driver/Src/stm32f1xx_hal_tim.c **** #else
 728:Drivers/STM32F1xx_HAL_Driver/Src/stm32f1xx_hal_tim.c ****   /* DeInit the low level hardware: GPIO, CLOCK, NVIC and DMA */
 729:Drivers/STM32F1xx_HAL_Driver/Src/stm32f1xx_hal_tim.c ****   HAL_TIM_OC_MspDeInit(htim);
 1178              		.loc 1 729 3 is_stmt 1
 1179 0040 7868     		ldr	r0, [r7, #4]
 1180 0042 FFF7FEFF 		bl	HAL_TIM_OC_MspDeInit
 730:Drivers/STM32F1xx_HAL_Driver/Src/stm32f1xx_hal_tim.c **** #endif /* USE_HAL_TIM_REGISTER_CALLBACKS */
 731:Drivers/STM32F1xx_HAL_Driver/Src/stm32f1xx_hal_tim.c **** 
 732:Drivers/STM32F1xx_HAL_Driver/Src/stm32f1xx_hal_tim.c ****   /* Change the DMA burst operation state */
 733:Drivers/STM32F1xx_HAL_Driver/Src/stm32f1xx_hal_tim.c ****   htim->DMABurstState = HAL_DMA_BURST_STATE_RESET;
 1181              		.loc 1 733 23
 1182 0046 7B68     		ldr	r3, [r7, #4]
 1183 0048 0022     		movs	r2, #0
 1184 004a 83F84620 		strb	r2, [r3, #70]
 734:Drivers/STM32F1xx_HAL_Driver/Src/stm32f1xx_hal_tim.c **** 
 735:Drivers/STM32F1xx_HAL_Driver/Src/stm32f1xx_hal_tim.c ****   /* Change the TIM channels state */
 736:Drivers/STM32F1xx_HAL_Driver/Src/stm32f1xx_hal_tim.c ****   TIM_CHANNEL_STATE_SET_ALL(htim, HAL_TIM_CHANNEL_STATE_RESET);
 1185              		.loc 1 736 3
 1186 004e 7B68     		ldr	r3, [r7, #4]
 1187 0050 0022     		movs	r2, #0
 1188 0052 83F83E20 		strb	r2, [r3, #62]
 1189 0056 7B68     		ldr	r3, [r7, #4]
 1190 0058 0022     		movs	r2, #0
 1191 005a 83F83F20 		strb	r2, [r3, #63]
 1192 005e 7B68     		ldr	r3, [r7, #4]
 1193 0060 0022     		movs	r2, #0
 1194 0062 83F84020 		strb	r2, [r3, #64]
 1195 0066 7B68     		ldr	r3, [r7, #4]
 1196 0068 0022     		movs	r2, #0
 1197 006a 83F84120 		strb	r2, [r3, #65]
 737:Drivers/STM32F1xx_HAL_Driver/Src/stm32f1xx_hal_tim.c ****   TIM_CHANNEL_N_STATE_SET_ALL(htim, HAL_TIM_CHANNEL_STATE_RESET);
 1198              		.loc 1 737 3
 1199 006e 7B68     		ldr	r3, [r7, #4]
 1200 0070 0022     		movs	r2, #0
 1201 0072 83F84220 		strb	r2, [r3, #66]
 1202 0076 7B68     		ldr	r3, [r7, #4]
 1203 0078 0022     		movs	r2, #0
 1204 007a 83F84320 		strb	r2, [r3, #67]
 1205 007e 7B68     		ldr	r3, [r7, #4]
 1206 0080 0022     		movs	r2, #0
 1207 0082 83F84420 		strb	r2, [r3, #68]
 1208 0086 7B68     		ldr	r3, [r7, #4]
 1209 0088 0022     		movs	r2, #0
 1210 008a 83F84520 		strb	r2, [r3, #69]
 738:Drivers/STM32F1xx_HAL_Driver/Src/stm32f1xx_hal_tim.c **** 
 739:Drivers/STM32F1xx_HAL_Driver/Src/stm32f1xx_hal_tim.c ****   /* Change TIM state */
 740:Drivers/STM32F1xx_HAL_Driver/Src/stm32f1xx_hal_tim.c ****   htim->State = HAL_TIM_STATE_RESET;
 1211              		.loc 1 740 15
 1212 008e 7B68     		ldr	r3, [r7, #4]
 1213 0090 0022     		movs	r2, #0
 1214 0092 83F83D20 		strb	r2, [r3, #61]
 741:Drivers/STM32F1xx_HAL_Driver/Src/stm32f1xx_hal_tim.c **** 
 742:Drivers/STM32F1xx_HAL_Driver/Src/stm32f1xx_hal_tim.c ****   /* Release Lock */
 743:Drivers/STM32F1xx_HAL_Driver/Src/stm32f1xx_hal_tim.c ****   __HAL_UNLOCK(htim);
ARM GAS  /tmp/ccW22bxd.s 			page 35


 1215              		.loc 1 743 3
 1216 0096 7B68     		ldr	r3, [r7, #4]
 1217 0098 0022     		movs	r2, #0
 1218 009a 83F83C20 		strb	r2, [r3, #60]
 744:Drivers/STM32F1xx_HAL_Driver/Src/stm32f1xx_hal_tim.c **** 
 745:Drivers/STM32F1xx_HAL_Driver/Src/stm32f1xx_hal_tim.c ****   return HAL_OK;
 1219              		.loc 1 745 10
 1220 009e 0023     		movs	r3, #0
 746:Drivers/STM32F1xx_HAL_Driver/Src/stm32f1xx_hal_tim.c **** }
 1221              		.loc 1 746 1
 1222 00a0 1846     		mov	r0, r3
 1223 00a2 0837     		adds	r7, r7, #8
 1224              	.LCFI64:
 1225              		.cfi_def_cfa_offset 8
 1226 00a4 BD46     		mov	sp, r7
 1227              	.LCFI65:
 1228              		.cfi_def_cfa_register 13
 1229              		@ sp needed
 1230 00a6 80BD     		pop	{r7, pc}
 1231              		.cfi_endproc
 1232              	.LFE76:
 1234              		.section	.text.HAL_TIM_OC_MspInit,"ax",%progbits
 1235              		.align	1
 1236              		.weak	HAL_TIM_OC_MspInit
 1237              		.syntax unified
 1238              		.thumb
 1239              		.thumb_func
 1241              	HAL_TIM_OC_MspInit:
 1242              	.LFB77:
 747:Drivers/STM32F1xx_HAL_Driver/Src/stm32f1xx_hal_tim.c **** 
 748:Drivers/STM32F1xx_HAL_Driver/Src/stm32f1xx_hal_tim.c **** /**
 749:Drivers/STM32F1xx_HAL_Driver/Src/stm32f1xx_hal_tim.c ****   * @brief  Initializes the TIM Output Compare MSP.
 750:Drivers/STM32F1xx_HAL_Driver/Src/stm32f1xx_hal_tim.c ****   * @param  htim TIM Output Compare handle
 751:Drivers/STM32F1xx_HAL_Driver/Src/stm32f1xx_hal_tim.c ****   * @retval None
 752:Drivers/STM32F1xx_HAL_Driver/Src/stm32f1xx_hal_tim.c ****   */
 753:Drivers/STM32F1xx_HAL_Driver/Src/stm32f1xx_hal_tim.c **** __weak void HAL_TIM_OC_MspInit(TIM_HandleTypeDef *htim)
 754:Drivers/STM32F1xx_HAL_Driver/Src/stm32f1xx_hal_tim.c **** {
 1243              		.loc 1 754 1
 1244              		.cfi_startproc
 1245              		@ args = 0, pretend = 0, frame = 8
 1246              		@ frame_needed = 1, uses_anonymous_args = 0
 1247              		@ link register save eliminated.
 1248 0000 80B4     		push	{r7}
 1249              	.LCFI66:
 1250              		.cfi_def_cfa_offset 4
 1251              		.cfi_offset 7, -4
 1252 0002 83B0     		sub	sp, sp, #12
 1253              	.LCFI67:
 1254              		.cfi_def_cfa_offset 16
 1255 0004 00AF     		add	r7, sp, #0
 1256              	.LCFI68:
 1257              		.cfi_def_cfa_register 7
 1258 0006 7860     		str	r0, [r7, #4]
 755:Drivers/STM32F1xx_HAL_Driver/Src/stm32f1xx_hal_tim.c ****   /* Prevent unused argument(s) compilation warning */
 756:Drivers/STM32F1xx_HAL_Driver/Src/stm32f1xx_hal_tim.c ****   UNUSED(htim);
 757:Drivers/STM32F1xx_HAL_Driver/Src/stm32f1xx_hal_tim.c **** 
 758:Drivers/STM32F1xx_HAL_Driver/Src/stm32f1xx_hal_tim.c ****   /* NOTE : This function should not be modified, when the callback is needed,
ARM GAS  /tmp/ccW22bxd.s 			page 36


 759:Drivers/STM32F1xx_HAL_Driver/Src/stm32f1xx_hal_tim.c ****             the HAL_TIM_OC_MspInit could be implemented in the user file
 760:Drivers/STM32F1xx_HAL_Driver/Src/stm32f1xx_hal_tim.c ****    */
 761:Drivers/STM32F1xx_HAL_Driver/Src/stm32f1xx_hal_tim.c **** }
 1259              		.loc 1 761 1
 1260 0008 00BF     		nop
 1261 000a 0C37     		adds	r7, r7, #12
 1262              	.LCFI69:
 1263              		.cfi_def_cfa_offset 4
 1264 000c BD46     		mov	sp, r7
 1265              	.LCFI70:
 1266              		.cfi_def_cfa_register 13
 1267              		@ sp needed
 1268 000e 80BC     		pop	{r7}
 1269              	.LCFI71:
 1270              		.cfi_restore 7
 1271              		.cfi_def_cfa_offset 0
 1272 0010 7047     		bx	lr
 1273              		.cfi_endproc
 1274              	.LFE77:
 1276              		.section	.text.HAL_TIM_OC_MspDeInit,"ax",%progbits
 1277              		.align	1
 1278              		.weak	HAL_TIM_OC_MspDeInit
 1279              		.syntax unified
 1280              		.thumb
 1281              		.thumb_func
 1283              	HAL_TIM_OC_MspDeInit:
 1284              	.LFB78:
 762:Drivers/STM32F1xx_HAL_Driver/Src/stm32f1xx_hal_tim.c **** 
 763:Drivers/STM32F1xx_HAL_Driver/Src/stm32f1xx_hal_tim.c **** /**
 764:Drivers/STM32F1xx_HAL_Driver/Src/stm32f1xx_hal_tim.c ****   * @brief  DeInitializes TIM Output Compare MSP.
 765:Drivers/STM32F1xx_HAL_Driver/Src/stm32f1xx_hal_tim.c ****   * @param  htim TIM Output Compare handle
 766:Drivers/STM32F1xx_HAL_Driver/Src/stm32f1xx_hal_tim.c ****   * @retval None
 767:Drivers/STM32F1xx_HAL_Driver/Src/stm32f1xx_hal_tim.c ****   */
 768:Drivers/STM32F1xx_HAL_Driver/Src/stm32f1xx_hal_tim.c **** __weak void HAL_TIM_OC_MspDeInit(TIM_HandleTypeDef *htim)
 769:Drivers/STM32F1xx_HAL_Driver/Src/stm32f1xx_hal_tim.c **** {
 1285              		.loc 1 769 1
 1286              		.cfi_startproc
 1287              		@ args = 0, pretend = 0, frame = 8
 1288              		@ frame_needed = 1, uses_anonymous_args = 0
 1289              		@ link register save eliminated.
 1290 0000 80B4     		push	{r7}
 1291              	.LCFI72:
 1292              		.cfi_def_cfa_offset 4
 1293              		.cfi_offset 7, -4
 1294 0002 83B0     		sub	sp, sp, #12
 1295              	.LCFI73:
 1296              		.cfi_def_cfa_offset 16
 1297 0004 00AF     		add	r7, sp, #0
 1298              	.LCFI74:
 1299              		.cfi_def_cfa_register 7
 1300 0006 7860     		str	r0, [r7, #4]
 770:Drivers/STM32F1xx_HAL_Driver/Src/stm32f1xx_hal_tim.c ****   /* Prevent unused argument(s) compilation warning */
 771:Drivers/STM32F1xx_HAL_Driver/Src/stm32f1xx_hal_tim.c ****   UNUSED(htim);
 772:Drivers/STM32F1xx_HAL_Driver/Src/stm32f1xx_hal_tim.c **** 
 773:Drivers/STM32F1xx_HAL_Driver/Src/stm32f1xx_hal_tim.c ****   /* NOTE : This function should not be modified, when the callback is needed,
 774:Drivers/STM32F1xx_HAL_Driver/Src/stm32f1xx_hal_tim.c ****             the HAL_TIM_OC_MspDeInit could be implemented in the user file
 775:Drivers/STM32F1xx_HAL_Driver/Src/stm32f1xx_hal_tim.c ****    */
ARM GAS  /tmp/ccW22bxd.s 			page 37


 776:Drivers/STM32F1xx_HAL_Driver/Src/stm32f1xx_hal_tim.c **** }
 1301              		.loc 1 776 1
 1302 0008 00BF     		nop
 1303 000a 0C37     		adds	r7, r7, #12
 1304              	.LCFI75:
 1305              		.cfi_def_cfa_offset 4
 1306 000c BD46     		mov	sp, r7
 1307              	.LCFI76:
 1308              		.cfi_def_cfa_register 13
 1309              		@ sp needed
 1310 000e 80BC     		pop	{r7}
 1311              	.LCFI77:
 1312              		.cfi_restore 7
 1313              		.cfi_def_cfa_offset 0
 1314 0010 7047     		bx	lr
 1315              		.cfi_endproc
 1316              	.LFE78:
 1318              		.section	.text.HAL_TIM_OC_Start,"ax",%progbits
 1319              		.align	1
 1320              		.global	HAL_TIM_OC_Start
 1321              		.syntax unified
 1322              		.thumb
 1323              		.thumb_func
 1325              	HAL_TIM_OC_Start:
 1326              	.LFB79:
 777:Drivers/STM32F1xx_HAL_Driver/Src/stm32f1xx_hal_tim.c **** 
 778:Drivers/STM32F1xx_HAL_Driver/Src/stm32f1xx_hal_tim.c **** /**
 779:Drivers/STM32F1xx_HAL_Driver/Src/stm32f1xx_hal_tim.c ****   * @brief  Starts the TIM Output Compare signal generation.
 780:Drivers/STM32F1xx_HAL_Driver/Src/stm32f1xx_hal_tim.c ****   * @param  htim TIM Output Compare handle
 781:Drivers/STM32F1xx_HAL_Driver/Src/stm32f1xx_hal_tim.c ****   * @param  Channel TIM Channel to be enabled
 782:Drivers/STM32F1xx_HAL_Driver/Src/stm32f1xx_hal_tim.c ****   *          This parameter can be one of the following values:
 783:Drivers/STM32F1xx_HAL_Driver/Src/stm32f1xx_hal_tim.c ****   *            @arg TIM_CHANNEL_1: TIM Channel 1 selected
 784:Drivers/STM32F1xx_HAL_Driver/Src/stm32f1xx_hal_tim.c ****   *            @arg TIM_CHANNEL_2: TIM Channel 2 selected
 785:Drivers/STM32F1xx_HAL_Driver/Src/stm32f1xx_hal_tim.c ****   *            @arg TIM_CHANNEL_3: TIM Channel 3 selected
 786:Drivers/STM32F1xx_HAL_Driver/Src/stm32f1xx_hal_tim.c ****   *            @arg TIM_CHANNEL_4: TIM Channel 4 selected
 787:Drivers/STM32F1xx_HAL_Driver/Src/stm32f1xx_hal_tim.c ****   * @retval HAL status
 788:Drivers/STM32F1xx_HAL_Driver/Src/stm32f1xx_hal_tim.c ****   */
 789:Drivers/STM32F1xx_HAL_Driver/Src/stm32f1xx_hal_tim.c **** HAL_StatusTypeDef HAL_TIM_OC_Start(TIM_HandleTypeDef *htim, uint32_t Channel)
 790:Drivers/STM32F1xx_HAL_Driver/Src/stm32f1xx_hal_tim.c **** {
 1327              		.loc 1 790 1
 1328              		.cfi_startproc
 1329              		@ args = 0, pretend = 0, frame = 16
 1330              		@ frame_needed = 1, uses_anonymous_args = 0
 1331 0000 80B5     		push	{r7, lr}
 1332              	.LCFI78:
 1333              		.cfi_def_cfa_offset 8
 1334              		.cfi_offset 7, -8
 1335              		.cfi_offset 14, -4
 1336 0002 84B0     		sub	sp, sp, #16
 1337              	.LCFI79:
 1338              		.cfi_def_cfa_offset 24
 1339 0004 00AF     		add	r7, sp, #0
 1340              	.LCFI80:
 1341              		.cfi_def_cfa_register 7
 1342 0006 7860     		str	r0, [r7, #4]
 1343 0008 3960     		str	r1, [r7]
 791:Drivers/STM32F1xx_HAL_Driver/Src/stm32f1xx_hal_tim.c ****   uint32_t tmpsmcr;
ARM GAS  /tmp/ccW22bxd.s 			page 38


 792:Drivers/STM32F1xx_HAL_Driver/Src/stm32f1xx_hal_tim.c **** 
 793:Drivers/STM32F1xx_HAL_Driver/Src/stm32f1xx_hal_tim.c ****   /* Check the parameters */
 794:Drivers/STM32F1xx_HAL_Driver/Src/stm32f1xx_hal_tim.c ****   assert_param(IS_TIM_CCX_INSTANCE(htim->Instance, Channel));
 795:Drivers/STM32F1xx_HAL_Driver/Src/stm32f1xx_hal_tim.c **** 
 796:Drivers/STM32F1xx_HAL_Driver/Src/stm32f1xx_hal_tim.c ****   /* Check the TIM channel state */
 797:Drivers/STM32F1xx_HAL_Driver/Src/stm32f1xx_hal_tim.c ****   if (TIM_CHANNEL_STATE_GET(htim, Channel) != HAL_TIM_CHANNEL_STATE_READY)
 1344              		.loc 1 797 44
 1345 000a 3B68     		ldr	r3, [r7]
 1346 000c 002B     		cmp	r3, #0
 1347 000e 09D1     		bne	.L62
 1348              		.loc 1 797 7 discriminator 1
 1349 0010 7B68     		ldr	r3, [r7, #4]
 1350 0012 93F83E30 		ldrb	r3, [r3, #62]
 1351 0016 DBB2     		uxtb	r3, r3
 1352              		.loc 1 797 44 discriminator 1
 1353 0018 012B     		cmp	r3, #1
 1354 001a 14BF     		ite	ne
 1355 001c 0123     		movne	r3, #1
 1356 001e 0023     		moveq	r3, #0
 1357 0020 DBB2     		uxtb	r3, r3
 1358 0022 22E0     		b	.L63
 1359              	.L62:
 1360              		.loc 1 797 44 is_stmt 0 discriminator 2
 1361 0024 3B68     		ldr	r3, [r7]
 1362 0026 042B     		cmp	r3, #4
 1363 0028 09D1     		bne	.L64
 1364              		.loc 1 797 7 is_stmt 1 discriminator 4
 1365 002a 7B68     		ldr	r3, [r7, #4]
 1366 002c 93F83F30 		ldrb	r3, [r3, #63]
 1367 0030 DBB2     		uxtb	r3, r3
 1368              		.loc 1 797 44 discriminator 4
 1369 0032 012B     		cmp	r3, #1
 1370 0034 14BF     		ite	ne
 1371 0036 0123     		movne	r3, #1
 1372 0038 0023     		moveq	r3, #0
 1373 003a DBB2     		uxtb	r3, r3
 1374 003c 15E0     		b	.L63
 1375              	.L64:
 1376              		.loc 1 797 44 is_stmt 0 discriminator 5
 1377 003e 3B68     		ldr	r3, [r7]
 1378 0040 082B     		cmp	r3, #8
 1379 0042 09D1     		bne	.L66
 1380              		.loc 1 797 7 is_stmt 1 discriminator 7
 1381 0044 7B68     		ldr	r3, [r7, #4]
 1382 0046 93F84030 		ldrb	r3, [r3, #64]
 1383 004a DBB2     		uxtb	r3, r3
 1384              		.loc 1 797 44 discriminator 7
 1385 004c 012B     		cmp	r3, #1
 1386 004e 14BF     		ite	ne
 1387 0050 0123     		movne	r3, #1
 1388 0052 0023     		moveq	r3, #0
 1389 0054 DBB2     		uxtb	r3, r3
 1390 0056 08E0     		b	.L63
 1391              	.L66:
 1392              		.loc 1 797 7 discriminator 8
 1393 0058 7B68     		ldr	r3, [r7, #4]
 1394 005a 93F84130 		ldrb	r3, [r3, #65]
ARM GAS  /tmp/ccW22bxd.s 			page 39


 1395 005e DBB2     		uxtb	r3, r3
 1396              		.loc 1 797 44 discriminator 8
 1397 0060 012B     		cmp	r3, #1
 1398 0062 14BF     		ite	ne
 1399 0064 0123     		movne	r3, #1
 1400 0066 0023     		moveq	r3, #0
 1401 0068 DBB2     		uxtb	r3, r3
 1402              	.L63:
 1403              		.loc 1 797 6 discriminator 12
 1404 006a 002B     		cmp	r3, #0
 1405 006c 01D0     		beq	.L68
 798:Drivers/STM32F1xx_HAL_Driver/Src/stm32f1xx_hal_tim.c ****   {
 799:Drivers/STM32F1xx_HAL_Driver/Src/stm32f1xx_hal_tim.c ****     return HAL_ERROR;
 1406              		.loc 1 799 12
 1407 006e 0123     		movs	r3, #1
 1408 0070 5EE0     		b	.L69
 1409              	.L68:
 800:Drivers/STM32F1xx_HAL_Driver/Src/stm32f1xx_hal_tim.c ****   }
 801:Drivers/STM32F1xx_HAL_Driver/Src/stm32f1xx_hal_tim.c **** 
 802:Drivers/STM32F1xx_HAL_Driver/Src/stm32f1xx_hal_tim.c ****   /* Set the TIM channel state */
 803:Drivers/STM32F1xx_HAL_Driver/Src/stm32f1xx_hal_tim.c ****   TIM_CHANNEL_STATE_SET(htim, Channel, HAL_TIM_CHANNEL_STATE_BUSY);
 1410              		.loc 1 803 3
 1411 0072 3B68     		ldr	r3, [r7]
 1412 0074 002B     		cmp	r3, #0
 1413 0076 04D1     		bne	.L70
 1414              		.loc 1 803 3 is_stmt 0 discriminator 1
 1415 0078 7B68     		ldr	r3, [r7, #4]
 1416 007a 0222     		movs	r2, #2
 1417 007c 83F83E20 		strb	r2, [r3, #62]
 1418 0080 13E0     		b	.L71
 1419              	.L70:
 1420              		.loc 1 803 3 discriminator 2
 1421 0082 3B68     		ldr	r3, [r7]
 1422 0084 042B     		cmp	r3, #4
 1423 0086 04D1     		bne	.L72
 1424              		.loc 1 803 3 discriminator 3
 1425 0088 7B68     		ldr	r3, [r7, #4]
 1426 008a 0222     		movs	r2, #2
 1427 008c 83F83F20 		strb	r2, [r3, #63]
 1428 0090 0BE0     		b	.L71
 1429              	.L72:
 1430              		.loc 1 803 3 discriminator 4
 1431 0092 3B68     		ldr	r3, [r7]
 1432 0094 082B     		cmp	r3, #8
 1433 0096 04D1     		bne	.L74
 1434              		.loc 1 803 3 discriminator 6
 1435 0098 7B68     		ldr	r3, [r7, #4]
 1436 009a 0222     		movs	r2, #2
 1437 009c 83F84020 		strb	r2, [r3, #64]
 1438 00a0 03E0     		b	.L71
 1439              	.L74:
 1440              		.loc 1 803 3 discriminator 7
 1441 00a2 7B68     		ldr	r3, [r7, #4]
 1442 00a4 0222     		movs	r2, #2
 1443 00a6 83F84120 		strb	r2, [r3, #65]
 1444              	.L71:
 804:Drivers/STM32F1xx_HAL_Driver/Src/stm32f1xx_hal_tim.c **** 
ARM GAS  /tmp/ccW22bxd.s 			page 40


 805:Drivers/STM32F1xx_HAL_Driver/Src/stm32f1xx_hal_tim.c ****   /* Enable the Output compare channel */
 806:Drivers/STM32F1xx_HAL_Driver/Src/stm32f1xx_hal_tim.c ****   TIM_CCxChannelCmd(htim->Instance, Channel, TIM_CCx_ENABLE);
 1445              		.loc 1 806 3 is_stmt 1
 1446 00aa 7B68     		ldr	r3, [r7, #4]
 1447 00ac 1B68     		ldr	r3, [r3]
 1448 00ae 0122     		movs	r2, #1
 1449 00b0 3968     		ldr	r1, [r7]
 1450 00b2 1846     		mov	r0, r3
 1451 00b4 FFF7FEFF 		bl	TIM_CCxChannelCmd
 807:Drivers/STM32F1xx_HAL_Driver/Src/stm32f1xx_hal_tim.c **** 
 808:Drivers/STM32F1xx_HAL_Driver/Src/stm32f1xx_hal_tim.c ****   if (IS_TIM_BREAK_INSTANCE(htim->Instance) != RESET)
 1452              		.loc 1 808 7
 1453 00b8 7B68     		ldr	r3, [r7, #4]
 1454 00ba 1B68     		ldr	r3, [r3]
 1455              		.loc 1 808 6
 1456 00bc 1E4A     		ldr	r2, .L81
 1457 00be 9342     		cmp	r3, r2
 1458 00c0 07D1     		bne	.L76
 809:Drivers/STM32F1xx_HAL_Driver/Src/stm32f1xx_hal_tim.c ****   {
 810:Drivers/STM32F1xx_HAL_Driver/Src/stm32f1xx_hal_tim.c ****     /* Enable the main output */
 811:Drivers/STM32F1xx_HAL_Driver/Src/stm32f1xx_hal_tim.c ****     __HAL_TIM_MOE_ENABLE(htim);
 1459              		.loc 1 811 5
 1460 00c2 7B68     		ldr	r3, [r7, #4]
 1461 00c4 1B68     		ldr	r3, [r3]
 1462 00c6 5A6C     		ldr	r2, [r3, #68]
 1463 00c8 7B68     		ldr	r3, [r7, #4]
 1464 00ca 1B68     		ldr	r3, [r3]
 1465 00cc 42F40042 		orr	r2, r2, #32768
 1466 00d0 5A64     		str	r2, [r3, #68]
 1467              	.L76:
 812:Drivers/STM32F1xx_HAL_Driver/Src/stm32f1xx_hal_tim.c ****   }
 813:Drivers/STM32F1xx_HAL_Driver/Src/stm32f1xx_hal_tim.c **** 
 814:Drivers/STM32F1xx_HAL_Driver/Src/stm32f1xx_hal_tim.c ****   /* Enable the Peripheral, except in trigger mode where enable is automatically done with trigger 
 815:Drivers/STM32F1xx_HAL_Driver/Src/stm32f1xx_hal_tim.c ****   if (IS_TIM_SLAVE_INSTANCE(htim->Instance))
 1468              		.loc 1 815 7
 1469 00d2 7B68     		ldr	r3, [r7, #4]
 1470 00d4 1B68     		ldr	r3, [r3]
 1471              		.loc 1 815 6
 1472 00d6 184A     		ldr	r2, .L81
 1473 00d8 9342     		cmp	r3, r2
 1474 00da 0ED0     		beq	.L77
 1475              		.loc 1 815 7 discriminator 1
 1476 00dc 7B68     		ldr	r3, [r7, #4]
 1477 00de 1B68     		ldr	r3, [r3]
 1478 00e0 B3F1804F 		cmp	r3, #1073741824
 1479 00e4 09D0     		beq	.L77
 1480              		.loc 1 815 7 is_stmt 0 discriminator 2
 1481 00e6 7B68     		ldr	r3, [r7, #4]
 1482 00e8 1B68     		ldr	r3, [r3]
 1483 00ea 144A     		ldr	r2, .L81+4
 1484 00ec 9342     		cmp	r3, r2
 1485 00ee 04D0     		beq	.L77
 1486              		.loc 1 815 7 discriminator 3
 1487 00f0 7B68     		ldr	r3, [r7, #4]
 1488 00f2 1B68     		ldr	r3, [r3]
 1489 00f4 124A     		ldr	r2, .L81+8
 1490 00f6 9342     		cmp	r3, r2
ARM GAS  /tmp/ccW22bxd.s 			page 41


 1491 00f8 11D1     		bne	.L78
 1492              	.L77:
 816:Drivers/STM32F1xx_HAL_Driver/Src/stm32f1xx_hal_tim.c ****   {
 817:Drivers/STM32F1xx_HAL_Driver/Src/stm32f1xx_hal_tim.c ****     tmpsmcr = htim->Instance->SMCR & TIM_SMCR_SMS;
 1493              		.loc 1 817 19 is_stmt 1
 1494 00fa 7B68     		ldr	r3, [r7, #4]
 1495 00fc 1B68     		ldr	r3, [r3]
 1496              		.loc 1 817 29
 1497 00fe 9B68     		ldr	r3, [r3, #8]
 1498              		.loc 1 817 13
 1499 0100 03F00703 		and	r3, r3, #7
 1500 0104 FB60     		str	r3, [r7, #12]
 818:Drivers/STM32F1xx_HAL_Driver/Src/stm32f1xx_hal_tim.c ****     if (!IS_TIM_SLAVEMODE_TRIGGER_ENABLED(tmpsmcr))
 1501              		.loc 1 818 8
 1502 0106 FB68     		ldr	r3, [r7, #12]
 1503 0108 062B     		cmp	r3, #6
 1504 010a 10D0     		beq	.L80
 819:Drivers/STM32F1xx_HAL_Driver/Src/stm32f1xx_hal_tim.c ****     {
 820:Drivers/STM32F1xx_HAL_Driver/Src/stm32f1xx_hal_tim.c ****       __HAL_TIM_ENABLE(htim);
 1505              		.loc 1 820 7
 1506 010c 7B68     		ldr	r3, [r7, #4]
 1507 010e 1B68     		ldr	r3, [r3]
 1508 0110 1A68     		ldr	r2, [r3]
 1509 0112 7B68     		ldr	r3, [r7, #4]
 1510 0114 1B68     		ldr	r3, [r3]
 1511 0116 42F00102 		orr	r2, r2, #1
 1512 011a 1A60     		str	r2, [r3]
 818:Drivers/STM32F1xx_HAL_Driver/Src/stm32f1xx_hal_tim.c ****     if (!IS_TIM_SLAVEMODE_TRIGGER_ENABLED(tmpsmcr))
 1513              		.loc 1 818 8
 1514 011c 07E0     		b	.L80
 1515              	.L78:
 821:Drivers/STM32F1xx_HAL_Driver/Src/stm32f1xx_hal_tim.c ****     }
 822:Drivers/STM32F1xx_HAL_Driver/Src/stm32f1xx_hal_tim.c ****   }
 823:Drivers/STM32F1xx_HAL_Driver/Src/stm32f1xx_hal_tim.c ****   else
 824:Drivers/STM32F1xx_HAL_Driver/Src/stm32f1xx_hal_tim.c ****   {
 825:Drivers/STM32F1xx_HAL_Driver/Src/stm32f1xx_hal_tim.c ****     __HAL_TIM_ENABLE(htim);
 1516              		.loc 1 825 5
 1517 011e 7B68     		ldr	r3, [r7, #4]
 1518 0120 1B68     		ldr	r3, [r3]
 1519 0122 1A68     		ldr	r2, [r3]
 1520 0124 7B68     		ldr	r3, [r7, #4]
 1521 0126 1B68     		ldr	r3, [r3]
 1522 0128 42F00102 		orr	r2, r2, #1
 1523 012c 1A60     		str	r2, [r3]
 1524              	.L80:
 826:Drivers/STM32F1xx_HAL_Driver/Src/stm32f1xx_hal_tim.c ****   }
 827:Drivers/STM32F1xx_HAL_Driver/Src/stm32f1xx_hal_tim.c **** 
 828:Drivers/STM32F1xx_HAL_Driver/Src/stm32f1xx_hal_tim.c ****   /* Return function status */
 829:Drivers/STM32F1xx_HAL_Driver/Src/stm32f1xx_hal_tim.c ****   return HAL_OK;
 1525              		.loc 1 829 10
 1526 012e 0023     		movs	r3, #0
 1527              	.L69:
 830:Drivers/STM32F1xx_HAL_Driver/Src/stm32f1xx_hal_tim.c **** }
 1528              		.loc 1 830 1
 1529 0130 1846     		mov	r0, r3
 1530 0132 1037     		adds	r7, r7, #16
 1531              	.LCFI81:
ARM GAS  /tmp/ccW22bxd.s 			page 42


 1532              		.cfi_def_cfa_offset 8
 1533 0134 BD46     		mov	sp, r7
 1534              	.LCFI82:
 1535              		.cfi_def_cfa_register 13
 1536              		@ sp needed
 1537 0136 80BD     		pop	{r7, pc}
 1538              	.L82:
 1539              		.align	2
 1540              	.L81:
 1541 0138 002C0140 		.word	1073818624
 1542 013c 00040040 		.word	1073742848
 1543 0140 00080040 		.word	1073743872
 1544              		.cfi_endproc
 1545              	.LFE79:
 1547              		.section	.text.HAL_TIM_OC_Stop,"ax",%progbits
 1548              		.align	1
 1549              		.global	HAL_TIM_OC_Stop
 1550              		.syntax unified
 1551              		.thumb
 1552              		.thumb_func
 1554              	HAL_TIM_OC_Stop:
 1555              	.LFB80:
 831:Drivers/STM32F1xx_HAL_Driver/Src/stm32f1xx_hal_tim.c **** 
 832:Drivers/STM32F1xx_HAL_Driver/Src/stm32f1xx_hal_tim.c **** /**
 833:Drivers/STM32F1xx_HAL_Driver/Src/stm32f1xx_hal_tim.c ****   * @brief  Stops the TIM Output Compare signal generation.
 834:Drivers/STM32F1xx_HAL_Driver/Src/stm32f1xx_hal_tim.c ****   * @param  htim TIM Output Compare handle
 835:Drivers/STM32F1xx_HAL_Driver/Src/stm32f1xx_hal_tim.c ****   * @param  Channel TIM Channel to be disabled
 836:Drivers/STM32F1xx_HAL_Driver/Src/stm32f1xx_hal_tim.c ****   *          This parameter can be one of the following values:
 837:Drivers/STM32F1xx_HAL_Driver/Src/stm32f1xx_hal_tim.c ****   *            @arg TIM_CHANNEL_1: TIM Channel 1 selected
 838:Drivers/STM32F1xx_HAL_Driver/Src/stm32f1xx_hal_tim.c ****   *            @arg TIM_CHANNEL_2: TIM Channel 2 selected
 839:Drivers/STM32F1xx_HAL_Driver/Src/stm32f1xx_hal_tim.c ****   *            @arg TIM_CHANNEL_3: TIM Channel 3 selected
 840:Drivers/STM32F1xx_HAL_Driver/Src/stm32f1xx_hal_tim.c ****   *            @arg TIM_CHANNEL_4: TIM Channel 4 selected
 841:Drivers/STM32F1xx_HAL_Driver/Src/stm32f1xx_hal_tim.c ****   * @retval HAL status
 842:Drivers/STM32F1xx_HAL_Driver/Src/stm32f1xx_hal_tim.c ****   */
 843:Drivers/STM32F1xx_HAL_Driver/Src/stm32f1xx_hal_tim.c **** HAL_StatusTypeDef HAL_TIM_OC_Stop(TIM_HandleTypeDef *htim, uint32_t Channel)
 844:Drivers/STM32F1xx_HAL_Driver/Src/stm32f1xx_hal_tim.c **** {
 1556              		.loc 1 844 1
 1557              		.cfi_startproc
 1558              		@ args = 0, pretend = 0, frame = 8
 1559              		@ frame_needed = 1, uses_anonymous_args = 0
 1560 0000 80B5     		push	{r7, lr}
 1561              	.LCFI83:
 1562              		.cfi_def_cfa_offset 8
 1563              		.cfi_offset 7, -8
 1564              		.cfi_offset 14, -4
 1565 0002 82B0     		sub	sp, sp, #8
 1566              	.LCFI84:
 1567              		.cfi_def_cfa_offset 16
 1568 0004 00AF     		add	r7, sp, #0
 1569              	.LCFI85:
 1570              		.cfi_def_cfa_register 7
 1571 0006 7860     		str	r0, [r7, #4]
 1572 0008 3960     		str	r1, [r7]
 845:Drivers/STM32F1xx_HAL_Driver/Src/stm32f1xx_hal_tim.c ****   /* Check the parameters */
 846:Drivers/STM32F1xx_HAL_Driver/Src/stm32f1xx_hal_tim.c ****   assert_param(IS_TIM_CCX_INSTANCE(htim->Instance, Channel));
 847:Drivers/STM32F1xx_HAL_Driver/Src/stm32f1xx_hal_tim.c **** 
 848:Drivers/STM32F1xx_HAL_Driver/Src/stm32f1xx_hal_tim.c ****   /* Disable the Output compare channel */
ARM GAS  /tmp/ccW22bxd.s 			page 43


 849:Drivers/STM32F1xx_HAL_Driver/Src/stm32f1xx_hal_tim.c ****   TIM_CCxChannelCmd(htim->Instance, Channel, TIM_CCx_DISABLE);
 1573              		.loc 1 849 3
 1574 000a 7B68     		ldr	r3, [r7, #4]
 1575 000c 1B68     		ldr	r3, [r3]
 1576 000e 0022     		movs	r2, #0
 1577 0010 3968     		ldr	r1, [r7]
 1578 0012 1846     		mov	r0, r3
 1579 0014 FFF7FEFF 		bl	TIM_CCxChannelCmd
 850:Drivers/STM32F1xx_HAL_Driver/Src/stm32f1xx_hal_tim.c **** 
 851:Drivers/STM32F1xx_HAL_Driver/Src/stm32f1xx_hal_tim.c ****   if (IS_TIM_BREAK_INSTANCE(htim->Instance) != RESET)
 1580              		.loc 1 851 7
 1581 0018 7B68     		ldr	r3, [r7, #4]
 1582 001a 1B68     		ldr	r3, [r3]
 1583              		.loc 1 851 6
 1584 001c 294A     		ldr	r2, .L93
 1585 001e 9342     		cmp	r3, r2
 1586 0020 17D1     		bne	.L84
 852:Drivers/STM32F1xx_HAL_Driver/Src/stm32f1xx_hal_tim.c ****   {
 853:Drivers/STM32F1xx_HAL_Driver/Src/stm32f1xx_hal_tim.c ****     /* Disable the Main Output */
 854:Drivers/STM32F1xx_HAL_Driver/Src/stm32f1xx_hal_tim.c ****     __HAL_TIM_MOE_DISABLE(htim);
 1587              		.loc 1 854 5
 1588 0022 7B68     		ldr	r3, [r7, #4]
 1589 0024 1B68     		ldr	r3, [r3]
 1590 0026 1A6A     		ldr	r2, [r3, #32]
 1591 0028 41F21113 		movw	r3, #4369
 1592 002c 1340     		ands	r3, r3, r2
 1593 002e 002B     		cmp	r3, #0
 1594 0030 0FD1     		bne	.L84
 1595              		.loc 1 854 5 is_stmt 0 discriminator 1
 1596 0032 7B68     		ldr	r3, [r7, #4]
 1597 0034 1B68     		ldr	r3, [r3]
 1598 0036 1A6A     		ldr	r2, [r3, #32]
 1599 0038 40F24443 		movw	r3, #1092
 1600 003c 1340     		ands	r3, r3, r2
 1601 003e 002B     		cmp	r3, #0
 1602 0040 07D1     		bne	.L84
 1603              		.loc 1 854 5 discriminator 2
 1604 0042 7B68     		ldr	r3, [r7, #4]
 1605 0044 1B68     		ldr	r3, [r3]
 1606 0046 5A6C     		ldr	r2, [r3, #68]
 1607 0048 7B68     		ldr	r3, [r7, #4]
 1608 004a 1B68     		ldr	r3, [r3]
 1609 004c 22F40042 		bic	r2, r2, #32768
 1610 0050 5A64     		str	r2, [r3, #68]
 1611              	.L84:
 855:Drivers/STM32F1xx_HAL_Driver/Src/stm32f1xx_hal_tim.c ****   }
 856:Drivers/STM32F1xx_HAL_Driver/Src/stm32f1xx_hal_tim.c **** 
 857:Drivers/STM32F1xx_HAL_Driver/Src/stm32f1xx_hal_tim.c ****   /* Disable the Peripheral */
 858:Drivers/STM32F1xx_HAL_Driver/Src/stm32f1xx_hal_tim.c ****   __HAL_TIM_DISABLE(htim);
 1612              		.loc 1 858 3 is_stmt 1
 1613 0052 7B68     		ldr	r3, [r7, #4]
 1614 0054 1B68     		ldr	r3, [r3]
 1615 0056 1A6A     		ldr	r2, [r3, #32]
 1616 0058 41F21113 		movw	r3, #4369
 1617 005c 1340     		ands	r3, r3, r2
 1618 005e 002B     		cmp	r3, #0
 1619 0060 0FD1     		bne	.L85
ARM GAS  /tmp/ccW22bxd.s 			page 44


 1620              		.loc 1 858 3 is_stmt 0 discriminator 1
 1621 0062 7B68     		ldr	r3, [r7, #4]
 1622 0064 1B68     		ldr	r3, [r3]
 1623 0066 1A6A     		ldr	r2, [r3, #32]
 1624 0068 40F24443 		movw	r3, #1092
 1625 006c 1340     		ands	r3, r3, r2
 1626 006e 002B     		cmp	r3, #0
 1627 0070 07D1     		bne	.L85
 1628              		.loc 1 858 3 discriminator 2
 1629 0072 7B68     		ldr	r3, [r7, #4]
 1630 0074 1B68     		ldr	r3, [r3]
 1631 0076 1A68     		ldr	r2, [r3]
 1632 0078 7B68     		ldr	r3, [r7, #4]
 1633 007a 1B68     		ldr	r3, [r3]
 1634 007c 22F00102 		bic	r2, r2, #1
 1635 0080 1A60     		str	r2, [r3]
 1636              	.L85:
 859:Drivers/STM32F1xx_HAL_Driver/Src/stm32f1xx_hal_tim.c **** 
 860:Drivers/STM32F1xx_HAL_Driver/Src/stm32f1xx_hal_tim.c ****   /* Set the TIM channel state */
 861:Drivers/STM32F1xx_HAL_Driver/Src/stm32f1xx_hal_tim.c ****   TIM_CHANNEL_STATE_SET(htim, Channel, HAL_TIM_CHANNEL_STATE_READY);
 1637              		.loc 1 861 3 is_stmt 1
 1638 0082 3B68     		ldr	r3, [r7]
 1639 0084 002B     		cmp	r3, #0
 1640 0086 04D1     		bne	.L86
 1641              		.loc 1 861 3 is_stmt 0 discriminator 1
 1642 0088 7B68     		ldr	r3, [r7, #4]
 1643 008a 0122     		movs	r2, #1
 1644 008c 83F83E20 		strb	r2, [r3, #62]
 1645 0090 13E0     		b	.L87
 1646              	.L86:
 1647              		.loc 1 861 3 discriminator 2
 1648 0092 3B68     		ldr	r3, [r7]
 1649 0094 042B     		cmp	r3, #4
 1650 0096 04D1     		bne	.L88
 1651              		.loc 1 861 3 discriminator 3
 1652 0098 7B68     		ldr	r3, [r7, #4]
 1653 009a 0122     		movs	r2, #1
 1654 009c 83F83F20 		strb	r2, [r3, #63]
 1655 00a0 0BE0     		b	.L87
 1656              	.L88:
 1657              		.loc 1 861 3 discriminator 4
 1658 00a2 3B68     		ldr	r3, [r7]
 1659 00a4 082B     		cmp	r3, #8
 1660 00a6 04D1     		bne	.L90
 1661              		.loc 1 861 3 discriminator 6
 1662 00a8 7B68     		ldr	r3, [r7, #4]
 1663 00aa 0122     		movs	r2, #1
 1664 00ac 83F84020 		strb	r2, [r3, #64]
 1665 00b0 03E0     		b	.L87
 1666              	.L90:
 1667              		.loc 1 861 3 discriminator 7
 1668 00b2 7B68     		ldr	r3, [r7, #4]
 1669 00b4 0122     		movs	r2, #1
 1670 00b6 83F84120 		strb	r2, [r3, #65]
 1671              	.L87:
 862:Drivers/STM32F1xx_HAL_Driver/Src/stm32f1xx_hal_tim.c **** 
 863:Drivers/STM32F1xx_HAL_Driver/Src/stm32f1xx_hal_tim.c ****   /* Return function status */
ARM GAS  /tmp/ccW22bxd.s 			page 45


 864:Drivers/STM32F1xx_HAL_Driver/Src/stm32f1xx_hal_tim.c ****   return HAL_OK;
 1672              		.loc 1 864 10 is_stmt 1
 1673 00ba 0023     		movs	r3, #0
 865:Drivers/STM32F1xx_HAL_Driver/Src/stm32f1xx_hal_tim.c **** }
 1674              		.loc 1 865 1
 1675 00bc 1846     		mov	r0, r3
 1676 00be 0837     		adds	r7, r7, #8
 1677              	.LCFI86:
 1678              		.cfi_def_cfa_offset 8
 1679 00c0 BD46     		mov	sp, r7
 1680              	.LCFI87:
 1681              		.cfi_def_cfa_register 13
 1682              		@ sp needed
 1683 00c2 80BD     		pop	{r7, pc}
 1684              	.L94:
 1685              		.align	2
 1686              	.L93:
 1687 00c4 002C0140 		.word	1073818624
 1688              		.cfi_endproc
 1689              	.LFE80:
 1691              		.section	.text.HAL_TIM_OC_Start_IT,"ax",%progbits
 1692              		.align	1
 1693              		.global	HAL_TIM_OC_Start_IT
 1694              		.syntax unified
 1695              		.thumb
 1696              		.thumb_func
 1698              	HAL_TIM_OC_Start_IT:
 1699              	.LFB81:
 866:Drivers/STM32F1xx_HAL_Driver/Src/stm32f1xx_hal_tim.c **** 
 867:Drivers/STM32F1xx_HAL_Driver/Src/stm32f1xx_hal_tim.c **** /**
 868:Drivers/STM32F1xx_HAL_Driver/Src/stm32f1xx_hal_tim.c ****   * @brief  Starts the TIM Output Compare signal generation in interrupt mode.
 869:Drivers/STM32F1xx_HAL_Driver/Src/stm32f1xx_hal_tim.c ****   * @param  htim TIM Output Compare handle
 870:Drivers/STM32F1xx_HAL_Driver/Src/stm32f1xx_hal_tim.c ****   * @param  Channel TIM Channel to be enabled
 871:Drivers/STM32F1xx_HAL_Driver/Src/stm32f1xx_hal_tim.c ****   *          This parameter can be one of the following values:
 872:Drivers/STM32F1xx_HAL_Driver/Src/stm32f1xx_hal_tim.c ****   *            @arg TIM_CHANNEL_1: TIM Channel 1 selected
 873:Drivers/STM32F1xx_HAL_Driver/Src/stm32f1xx_hal_tim.c ****   *            @arg TIM_CHANNEL_2: TIM Channel 2 selected
 874:Drivers/STM32F1xx_HAL_Driver/Src/stm32f1xx_hal_tim.c ****   *            @arg TIM_CHANNEL_3: TIM Channel 3 selected
 875:Drivers/STM32F1xx_HAL_Driver/Src/stm32f1xx_hal_tim.c ****   *            @arg TIM_CHANNEL_4: TIM Channel 4 selected
 876:Drivers/STM32F1xx_HAL_Driver/Src/stm32f1xx_hal_tim.c ****   * @retval HAL status
 877:Drivers/STM32F1xx_HAL_Driver/Src/stm32f1xx_hal_tim.c ****   */
 878:Drivers/STM32F1xx_HAL_Driver/Src/stm32f1xx_hal_tim.c **** HAL_StatusTypeDef HAL_TIM_OC_Start_IT(TIM_HandleTypeDef *htim, uint32_t Channel)
 879:Drivers/STM32F1xx_HAL_Driver/Src/stm32f1xx_hal_tim.c **** {
 1700              		.loc 1 879 1
 1701              		.cfi_startproc
 1702              		@ args = 0, pretend = 0, frame = 16
 1703              		@ frame_needed = 1, uses_anonymous_args = 0
 1704 0000 80B5     		push	{r7, lr}
 1705              	.LCFI88:
 1706              		.cfi_def_cfa_offset 8
 1707              		.cfi_offset 7, -8
 1708              		.cfi_offset 14, -4
 1709 0002 84B0     		sub	sp, sp, #16
 1710              	.LCFI89:
 1711              		.cfi_def_cfa_offset 24
 1712 0004 00AF     		add	r7, sp, #0
 1713              	.LCFI90:
 1714              		.cfi_def_cfa_register 7
ARM GAS  /tmp/ccW22bxd.s 			page 46


 1715 0006 7860     		str	r0, [r7, #4]
 1716 0008 3960     		str	r1, [r7]
 880:Drivers/STM32F1xx_HAL_Driver/Src/stm32f1xx_hal_tim.c ****   HAL_StatusTypeDef status = HAL_OK;
 1717              		.loc 1 880 21
 1718 000a 0023     		movs	r3, #0
 1719 000c FB73     		strb	r3, [r7, #15]
 881:Drivers/STM32F1xx_HAL_Driver/Src/stm32f1xx_hal_tim.c ****   uint32_t tmpsmcr;
 882:Drivers/STM32F1xx_HAL_Driver/Src/stm32f1xx_hal_tim.c **** 
 883:Drivers/STM32F1xx_HAL_Driver/Src/stm32f1xx_hal_tim.c ****   /* Check the parameters */
 884:Drivers/STM32F1xx_HAL_Driver/Src/stm32f1xx_hal_tim.c ****   assert_param(IS_TIM_CCX_INSTANCE(htim->Instance, Channel));
 885:Drivers/STM32F1xx_HAL_Driver/Src/stm32f1xx_hal_tim.c **** 
 886:Drivers/STM32F1xx_HAL_Driver/Src/stm32f1xx_hal_tim.c ****   /* Check the TIM channel state */
 887:Drivers/STM32F1xx_HAL_Driver/Src/stm32f1xx_hal_tim.c ****   if (TIM_CHANNEL_STATE_GET(htim, Channel) != HAL_TIM_CHANNEL_STATE_READY)
 1720              		.loc 1 887 44
 1721 000e 3B68     		ldr	r3, [r7]
 1722 0010 002B     		cmp	r3, #0
 1723 0012 09D1     		bne	.L96
 1724              		.loc 1 887 7 discriminator 1
 1725 0014 7B68     		ldr	r3, [r7, #4]
 1726 0016 93F83E30 		ldrb	r3, [r3, #62]
 1727 001a DBB2     		uxtb	r3, r3
 1728              		.loc 1 887 44 discriminator 1
 1729 001c 012B     		cmp	r3, #1
 1730 001e 14BF     		ite	ne
 1731 0020 0123     		movne	r3, #1
 1732 0022 0023     		moveq	r3, #0
 1733 0024 DBB2     		uxtb	r3, r3
 1734 0026 22E0     		b	.L97
 1735              	.L96:
 1736              		.loc 1 887 44 is_stmt 0 discriminator 2
 1737 0028 3B68     		ldr	r3, [r7]
 1738 002a 042B     		cmp	r3, #4
 1739 002c 09D1     		bne	.L98
 1740              		.loc 1 887 7 is_stmt 1 discriminator 4
 1741 002e 7B68     		ldr	r3, [r7, #4]
 1742 0030 93F83F30 		ldrb	r3, [r3, #63]
 1743 0034 DBB2     		uxtb	r3, r3
 1744              		.loc 1 887 44 discriminator 4
 1745 0036 012B     		cmp	r3, #1
 1746 0038 14BF     		ite	ne
 1747 003a 0123     		movne	r3, #1
 1748 003c 0023     		moveq	r3, #0
 1749 003e DBB2     		uxtb	r3, r3
 1750 0040 15E0     		b	.L97
 1751              	.L98:
 1752              		.loc 1 887 44 is_stmt 0 discriminator 5
 1753 0042 3B68     		ldr	r3, [r7]
 1754 0044 082B     		cmp	r3, #8
 1755 0046 09D1     		bne	.L100
 1756              		.loc 1 887 7 is_stmt 1 discriminator 7
 1757 0048 7B68     		ldr	r3, [r7, #4]
 1758 004a 93F84030 		ldrb	r3, [r3, #64]
 1759 004e DBB2     		uxtb	r3, r3
 1760              		.loc 1 887 44 discriminator 7
 1761 0050 012B     		cmp	r3, #1
 1762 0052 14BF     		ite	ne
 1763 0054 0123     		movne	r3, #1
ARM GAS  /tmp/ccW22bxd.s 			page 47


 1764 0056 0023     		moveq	r3, #0
 1765 0058 DBB2     		uxtb	r3, r3
 1766 005a 08E0     		b	.L97
 1767              	.L100:
 1768              		.loc 1 887 7 discriminator 8
 1769 005c 7B68     		ldr	r3, [r7, #4]
 1770 005e 93F84130 		ldrb	r3, [r3, #65]
 1771 0062 DBB2     		uxtb	r3, r3
 1772              		.loc 1 887 44 discriminator 8
 1773 0064 012B     		cmp	r3, #1
 1774 0066 14BF     		ite	ne
 1775 0068 0123     		movne	r3, #1
 1776 006a 0023     		moveq	r3, #0
 1777 006c DBB2     		uxtb	r3, r3
 1778              	.L97:
 1779              		.loc 1 887 6 discriminator 12
 1780 006e 002B     		cmp	r3, #0
 1781 0070 01D0     		beq	.L102
 888:Drivers/STM32F1xx_HAL_Driver/Src/stm32f1xx_hal_tim.c ****   {
 889:Drivers/STM32F1xx_HAL_Driver/Src/stm32f1xx_hal_tim.c ****     return HAL_ERROR;
 1782              		.loc 1 889 12
 1783 0072 0123     		movs	r3, #1
 1784 0074 A9E0     		b	.L103
 1785              	.L102:
 890:Drivers/STM32F1xx_HAL_Driver/Src/stm32f1xx_hal_tim.c ****   }
 891:Drivers/STM32F1xx_HAL_Driver/Src/stm32f1xx_hal_tim.c **** 
 892:Drivers/STM32F1xx_HAL_Driver/Src/stm32f1xx_hal_tim.c ****   /* Set the TIM channel state */
 893:Drivers/STM32F1xx_HAL_Driver/Src/stm32f1xx_hal_tim.c ****   TIM_CHANNEL_STATE_SET(htim, Channel, HAL_TIM_CHANNEL_STATE_BUSY);
 1786              		.loc 1 893 3
 1787 0076 3B68     		ldr	r3, [r7]
 1788 0078 002B     		cmp	r3, #0
 1789 007a 04D1     		bne	.L104
 1790              		.loc 1 893 3 is_stmt 0 discriminator 1
 1791 007c 7B68     		ldr	r3, [r7, #4]
 1792 007e 0222     		movs	r2, #2
 1793 0080 83F83E20 		strb	r2, [r3, #62]
 1794 0084 13E0     		b	.L105
 1795              	.L104:
 1796              		.loc 1 893 3 discriminator 2
 1797 0086 3B68     		ldr	r3, [r7]
 1798 0088 042B     		cmp	r3, #4
 1799 008a 04D1     		bne	.L106
 1800              		.loc 1 893 3 discriminator 3
 1801 008c 7B68     		ldr	r3, [r7, #4]
 1802 008e 0222     		movs	r2, #2
 1803 0090 83F83F20 		strb	r2, [r3, #63]
 1804 0094 0BE0     		b	.L105
 1805              	.L106:
 1806              		.loc 1 893 3 discriminator 4
 1807 0096 3B68     		ldr	r3, [r7]
 1808 0098 082B     		cmp	r3, #8
 1809 009a 04D1     		bne	.L108
 1810              		.loc 1 893 3 discriminator 6
 1811 009c 7B68     		ldr	r3, [r7, #4]
 1812 009e 0222     		movs	r2, #2
 1813 00a0 83F84020 		strb	r2, [r3, #64]
 1814 00a4 03E0     		b	.L105
ARM GAS  /tmp/ccW22bxd.s 			page 48


 1815              	.L108:
 1816              		.loc 1 893 3 discriminator 7
 1817 00a6 7B68     		ldr	r3, [r7, #4]
 1818 00a8 0222     		movs	r2, #2
 1819 00aa 83F84120 		strb	r2, [r3, #65]
 1820              	.L105:
 894:Drivers/STM32F1xx_HAL_Driver/Src/stm32f1xx_hal_tim.c **** 
 895:Drivers/STM32F1xx_HAL_Driver/Src/stm32f1xx_hal_tim.c ****   switch (Channel)
 1821              		.loc 1 895 3 is_stmt 1
 1822 00ae 3B68     		ldr	r3, [r7]
 1823 00b0 0C2B     		cmp	r3, #12
 1824 00b2 41D8     		bhi	.L110
 1825 00b4 01A2     		adr	r2, .L112
 1826 00b6 52F823F0 		ldr	pc, [r2, r3, lsl #2]
 1827 00ba 00BF     		.p2align 2
 1828              	.L112:
 1829 00bc F1000000 		.word	.L115+1
 1830 00c0 39010000 		.word	.L110+1
 1831 00c4 39010000 		.word	.L110+1
 1832 00c8 39010000 		.word	.L110+1
 1833 00cc 03010000 		.word	.L114+1
 1834 00d0 39010000 		.word	.L110+1
 1835 00d4 39010000 		.word	.L110+1
 1836 00d8 39010000 		.word	.L110+1
 1837 00dc 15010000 		.word	.L113+1
 1838 00e0 39010000 		.word	.L110+1
 1839 00e4 39010000 		.word	.L110+1
 1840 00e8 39010000 		.word	.L110+1
 1841 00ec 27010000 		.word	.L111+1
 1842              		.p2align 1
 1843              	.L115:
 896:Drivers/STM32F1xx_HAL_Driver/Src/stm32f1xx_hal_tim.c ****   {
 897:Drivers/STM32F1xx_HAL_Driver/Src/stm32f1xx_hal_tim.c ****     case TIM_CHANNEL_1:
 898:Drivers/STM32F1xx_HAL_Driver/Src/stm32f1xx_hal_tim.c ****     {
 899:Drivers/STM32F1xx_HAL_Driver/Src/stm32f1xx_hal_tim.c ****       /* Enable the TIM Capture/Compare 1 interrupt */
 900:Drivers/STM32F1xx_HAL_Driver/Src/stm32f1xx_hal_tim.c ****       __HAL_TIM_ENABLE_IT(htim, TIM_IT_CC1);
 1844              		.loc 1 900 7
 1845 00f0 7B68     		ldr	r3, [r7, #4]
 1846 00f2 1B68     		ldr	r3, [r3]
 1847 00f4 DA68     		ldr	r2, [r3, #12]
 1848 00f6 7B68     		ldr	r3, [r7, #4]
 1849 00f8 1B68     		ldr	r3, [r3]
 1850 00fa 42F00202 		orr	r2, r2, #2
 1851 00fe DA60     		str	r2, [r3, #12]
 901:Drivers/STM32F1xx_HAL_Driver/Src/stm32f1xx_hal_tim.c ****       break;
 1852              		.loc 1 901 7
 1853 0100 1DE0     		b	.L116
 1854              	.L114:
 902:Drivers/STM32F1xx_HAL_Driver/Src/stm32f1xx_hal_tim.c ****     }
 903:Drivers/STM32F1xx_HAL_Driver/Src/stm32f1xx_hal_tim.c **** 
 904:Drivers/STM32F1xx_HAL_Driver/Src/stm32f1xx_hal_tim.c ****     case TIM_CHANNEL_2:
 905:Drivers/STM32F1xx_HAL_Driver/Src/stm32f1xx_hal_tim.c ****     {
 906:Drivers/STM32F1xx_HAL_Driver/Src/stm32f1xx_hal_tim.c ****       /* Enable the TIM Capture/Compare 2 interrupt */
 907:Drivers/STM32F1xx_HAL_Driver/Src/stm32f1xx_hal_tim.c ****       __HAL_TIM_ENABLE_IT(htim, TIM_IT_CC2);
 1855              		.loc 1 907 7
 1856 0102 7B68     		ldr	r3, [r7, #4]
 1857 0104 1B68     		ldr	r3, [r3]
ARM GAS  /tmp/ccW22bxd.s 			page 49


 1858 0106 DA68     		ldr	r2, [r3, #12]
 1859 0108 7B68     		ldr	r3, [r7, #4]
 1860 010a 1B68     		ldr	r3, [r3]
 1861 010c 42F00402 		orr	r2, r2, #4
 1862 0110 DA60     		str	r2, [r3, #12]
 908:Drivers/STM32F1xx_HAL_Driver/Src/stm32f1xx_hal_tim.c ****       break;
 1863              		.loc 1 908 7
 1864 0112 14E0     		b	.L116
 1865              	.L113:
 909:Drivers/STM32F1xx_HAL_Driver/Src/stm32f1xx_hal_tim.c ****     }
 910:Drivers/STM32F1xx_HAL_Driver/Src/stm32f1xx_hal_tim.c **** 
 911:Drivers/STM32F1xx_HAL_Driver/Src/stm32f1xx_hal_tim.c ****     case TIM_CHANNEL_3:
 912:Drivers/STM32F1xx_HAL_Driver/Src/stm32f1xx_hal_tim.c ****     {
 913:Drivers/STM32F1xx_HAL_Driver/Src/stm32f1xx_hal_tim.c ****       /* Enable the TIM Capture/Compare 3 interrupt */
 914:Drivers/STM32F1xx_HAL_Driver/Src/stm32f1xx_hal_tim.c ****       __HAL_TIM_ENABLE_IT(htim, TIM_IT_CC3);
 1866              		.loc 1 914 7
 1867 0114 7B68     		ldr	r3, [r7, #4]
 1868 0116 1B68     		ldr	r3, [r3]
 1869 0118 DA68     		ldr	r2, [r3, #12]
 1870 011a 7B68     		ldr	r3, [r7, #4]
 1871 011c 1B68     		ldr	r3, [r3]
 1872 011e 42F00802 		orr	r2, r2, #8
 1873 0122 DA60     		str	r2, [r3, #12]
 915:Drivers/STM32F1xx_HAL_Driver/Src/stm32f1xx_hal_tim.c ****       break;
 1874              		.loc 1 915 7
 1875 0124 0BE0     		b	.L116
 1876              	.L111:
 916:Drivers/STM32F1xx_HAL_Driver/Src/stm32f1xx_hal_tim.c ****     }
 917:Drivers/STM32F1xx_HAL_Driver/Src/stm32f1xx_hal_tim.c **** 
 918:Drivers/STM32F1xx_HAL_Driver/Src/stm32f1xx_hal_tim.c ****     case TIM_CHANNEL_4:
 919:Drivers/STM32F1xx_HAL_Driver/Src/stm32f1xx_hal_tim.c ****     {
 920:Drivers/STM32F1xx_HAL_Driver/Src/stm32f1xx_hal_tim.c ****       /* Enable the TIM Capture/Compare 4 interrupt */
 921:Drivers/STM32F1xx_HAL_Driver/Src/stm32f1xx_hal_tim.c ****       __HAL_TIM_ENABLE_IT(htim, TIM_IT_CC4);
 1877              		.loc 1 921 7
 1878 0126 7B68     		ldr	r3, [r7, #4]
 1879 0128 1B68     		ldr	r3, [r3]
 1880 012a DA68     		ldr	r2, [r3, #12]
 1881 012c 7B68     		ldr	r3, [r7, #4]
 1882 012e 1B68     		ldr	r3, [r3]
 1883 0130 42F01002 		orr	r2, r2, #16
 1884 0134 DA60     		str	r2, [r3, #12]
 922:Drivers/STM32F1xx_HAL_Driver/Src/stm32f1xx_hal_tim.c ****       break;
 1885              		.loc 1 922 7
 1886 0136 02E0     		b	.L116
 1887              	.L110:
 923:Drivers/STM32F1xx_HAL_Driver/Src/stm32f1xx_hal_tim.c ****     }
 924:Drivers/STM32F1xx_HAL_Driver/Src/stm32f1xx_hal_tim.c **** 
 925:Drivers/STM32F1xx_HAL_Driver/Src/stm32f1xx_hal_tim.c ****     default:
 926:Drivers/STM32F1xx_HAL_Driver/Src/stm32f1xx_hal_tim.c ****       status = HAL_ERROR;
 1888              		.loc 1 926 14
 1889 0138 0123     		movs	r3, #1
 1890 013a FB73     		strb	r3, [r7, #15]
 927:Drivers/STM32F1xx_HAL_Driver/Src/stm32f1xx_hal_tim.c ****       break;
 1891              		.loc 1 927 7
 1892 013c 00BF     		nop
 1893              	.L116:
 928:Drivers/STM32F1xx_HAL_Driver/Src/stm32f1xx_hal_tim.c ****   }
ARM GAS  /tmp/ccW22bxd.s 			page 50


 929:Drivers/STM32F1xx_HAL_Driver/Src/stm32f1xx_hal_tim.c **** 
 930:Drivers/STM32F1xx_HAL_Driver/Src/stm32f1xx_hal_tim.c ****   if (status == HAL_OK)
 1894              		.loc 1 930 6
 1895 013e FB7B     		ldrb	r3, [r7, #15]	@ zero_extendqisi2
 1896 0140 002B     		cmp	r3, #0
 1897 0142 41D1     		bne	.L117
 931:Drivers/STM32F1xx_HAL_Driver/Src/stm32f1xx_hal_tim.c ****   {
 932:Drivers/STM32F1xx_HAL_Driver/Src/stm32f1xx_hal_tim.c ****     /* Enable the Output compare channel */
 933:Drivers/STM32F1xx_HAL_Driver/Src/stm32f1xx_hal_tim.c ****     TIM_CCxChannelCmd(htim->Instance, Channel, TIM_CCx_ENABLE);
 1898              		.loc 1 933 5
 1899 0144 7B68     		ldr	r3, [r7, #4]
 1900 0146 1B68     		ldr	r3, [r3]
 1901 0148 0122     		movs	r2, #1
 1902 014a 3968     		ldr	r1, [r7]
 1903 014c 1846     		mov	r0, r3
 1904 014e FFF7FEFF 		bl	TIM_CCxChannelCmd
 934:Drivers/STM32F1xx_HAL_Driver/Src/stm32f1xx_hal_tim.c **** 
 935:Drivers/STM32F1xx_HAL_Driver/Src/stm32f1xx_hal_tim.c ****     if (IS_TIM_BREAK_INSTANCE(htim->Instance) != RESET)
 1905              		.loc 1 935 9
 1906 0152 7B68     		ldr	r3, [r7, #4]
 1907 0154 1B68     		ldr	r3, [r3]
 1908              		.loc 1 935 8
 1909 0156 1F4A     		ldr	r2, .L122
 1910 0158 9342     		cmp	r3, r2
 1911 015a 07D1     		bne	.L118
 936:Drivers/STM32F1xx_HAL_Driver/Src/stm32f1xx_hal_tim.c ****     {
 937:Drivers/STM32F1xx_HAL_Driver/Src/stm32f1xx_hal_tim.c ****       /* Enable the main output */
 938:Drivers/STM32F1xx_HAL_Driver/Src/stm32f1xx_hal_tim.c ****       __HAL_TIM_MOE_ENABLE(htim);
 1912              		.loc 1 938 7
 1913 015c 7B68     		ldr	r3, [r7, #4]
 1914 015e 1B68     		ldr	r3, [r3]
 1915 0160 5A6C     		ldr	r2, [r3, #68]
 1916 0162 7B68     		ldr	r3, [r7, #4]
 1917 0164 1B68     		ldr	r3, [r3]
 1918 0166 42F40042 		orr	r2, r2, #32768
 1919 016a 5A64     		str	r2, [r3, #68]
 1920              	.L118:
 939:Drivers/STM32F1xx_HAL_Driver/Src/stm32f1xx_hal_tim.c ****     }
 940:Drivers/STM32F1xx_HAL_Driver/Src/stm32f1xx_hal_tim.c **** 
 941:Drivers/STM32F1xx_HAL_Driver/Src/stm32f1xx_hal_tim.c ****     /* Enable the Peripheral, except in trigger mode where enable is automatically done with trigge
 942:Drivers/STM32F1xx_HAL_Driver/Src/stm32f1xx_hal_tim.c ****     if (IS_TIM_SLAVE_INSTANCE(htim->Instance))
 1921              		.loc 1 942 9
 1922 016c 7B68     		ldr	r3, [r7, #4]
 1923 016e 1B68     		ldr	r3, [r3]
 1924              		.loc 1 942 8
 1925 0170 184A     		ldr	r2, .L122
 1926 0172 9342     		cmp	r3, r2
 1927 0174 0ED0     		beq	.L119
 1928              		.loc 1 942 9 discriminator 1
 1929 0176 7B68     		ldr	r3, [r7, #4]
 1930 0178 1B68     		ldr	r3, [r3]
 1931 017a B3F1804F 		cmp	r3, #1073741824
 1932 017e 09D0     		beq	.L119
 1933              		.loc 1 942 9 is_stmt 0 discriminator 2
 1934 0180 7B68     		ldr	r3, [r7, #4]
 1935 0182 1B68     		ldr	r3, [r3]
 1936 0184 144A     		ldr	r2, .L122+4
ARM GAS  /tmp/ccW22bxd.s 			page 51


 1937 0186 9342     		cmp	r3, r2
 1938 0188 04D0     		beq	.L119
 1939              		.loc 1 942 9 discriminator 3
 1940 018a 7B68     		ldr	r3, [r7, #4]
 1941 018c 1B68     		ldr	r3, [r3]
 1942 018e 134A     		ldr	r2, .L122+8
 1943 0190 9342     		cmp	r3, r2
 1944 0192 11D1     		bne	.L120
 1945              	.L119:
 943:Drivers/STM32F1xx_HAL_Driver/Src/stm32f1xx_hal_tim.c ****     {
 944:Drivers/STM32F1xx_HAL_Driver/Src/stm32f1xx_hal_tim.c ****       tmpsmcr = htim->Instance->SMCR & TIM_SMCR_SMS;
 1946              		.loc 1 944 21 is_stmt 1
 1947 0194 7B68     		ldr	r3, [r7, #4]
 1948 0196 1B68     		ldr	r3, [r3]
 1949              		.loc 1 944 31
 1950 0198 9B68     		ldr	r3, [r3, #8]
 1951              		.loc 1 944 15
 1952 019a 03F00703 		and	r3, r3, #7
 1953 019e BB60     		str	r3, [r7, #8]
 945:Drivers/STM32F1xx_HAL_Driver/Src/stm32f1xx_hal_tim.c ****       if (!IS_TIM_SLAVEMODE_TRIGGER_ENABLED(tmpsmcr))
 1954              		.loc 1 945 10
 1955 01a0 BB68     		ldr	r3, [r7, #8]
 1956 01a2 062B     		cmp	r3, #6
 1957 01a4 10D0     		beq	.L117
 946:Drivers/STM32F1xx_HAL_Driver/Src/stm32f1xx_hal_tim.c ****       {
 947:Drivers/STM32F1xx_HAL_Driver/Src/stm32f1xx_hal_tim.c ****         __HAL_TIM_ENABLE(htim);
 1958              		.loc 1 947 9
 1959 01a6 7B68     		ldr	r3, [r7, #4]
 1960 01a8 1B68     		ldr	r3, [r3]
 1961 01aa 1A68     		ldr	r2, [r3]
 1962 01ac 7B68     		ldr	r3, [r7, #4]
 1963 01ae 1B68     		ldr	r3, [r3]
 1964 01b0 42F00102 		orr	r2, r2, #1
 1965 01b4 1A60     		str	r2, [r3]
 945:Drivers/STM32F1xx_HAL_Driver/Src/stm32f1xx_hal_tim.c ****       if (!IS_TIM_SLAVEMODE_TRIGGER_ENABLED(tmpsmcr))
 1966              		.loc 1 945 10
 1967 01b6 07E0     		b	.L117
 1968              	.L120:
 948:Drivers/STM32F1xx_HAL_Driver/Src/stm32f1xx_hal_tim.c ****       }
 949:Drivers/STM32F1xx_HAL_Driver/Src/stm32f1xx_hal_tim.c ****     }
 950:Drivers/STM32F1xx_HAL_Driver/Src/stm32f1xx_hal_tim.c ****     else
 951:Drivers/STM32F1xx_HAL_Driver/Src/stm32f1xx_hal_tim.c ****     {
 952:Drivers/STM32F1xx_HAL_Driver/Src/stm32f1xx_hal_tim.c ****       __HAL_TIM_ENABLE(htim);
 1969              		.loc 1 952 7
 1970 01b8 7B68     		ldr	r3, [r7, #4]
 1971 01ba 1B68     		ldr	r3, [r3]
 1972 01bc 1A68     		ldr	r2, [r3]
 1973 01be 7B68     		ldr	r3, [r7, #4]
 1974 01c0 1B68     		ldr	r3, [r3]
 1975 01c2 42F00102 		orr	r2, r2, #1
 1976 01c6 1A60     		str	r2, [r3]
 1977              	.L117:
 953:Drivers/STM32F1xx_HAL_Driver/Src/stm32f1xx_hal_tim.c ****     }
 954:Drivers/STM32F1xx_HAL_Driver/Src/stm32f1xx_hal_tim.c ****   }
 955:Drivers/STM32F1xx_HAL_Driver/Src/stm32f1xx_hal_tim.c **** 
 956:Drivers/STM32F1xx_HAL_Driver/Src/stm32f1xx_hal_tim.c ****   /* Return function status */
 957:Drivers/STM32F1xx_HAL_Driver/Src/stm32f1xx_hal_tim.c ****   return status;
ARM GAS  /tmp/ccW22bxd.s 			page 52


 1978              		.loc 1 957 10
 1979 01c8 FB7B     		ldrb	r3, [r7, #15]	@ zero_extendqisi2
 1980              	.L103:
 958:Drivers/STM32F1xx_HAL_Driver/Src/stm32f1xx_hal_tim.c **** }
 1981              		.loc 1 958 1
 1982 01ca 1846     		mov	r0, r3
 1983 01cc 1037     		adds	r7, r7, #16
 1984              	.LCFI91:
 1985              		.cfi_def_cfa_offset 8
 1986 01ce BD46     		mov	sp, r7
 1987              	.LCFI92:
 1988              		.cfi_def_cfa_register 13
 1989              		@ sp needed
 1990 01d0 80BD     		pop	{r7, pc}
 1991              	.L123:
 1992 01d2 00BF     		.align	2
 1993              	.L122:
 1994 01d4 002C0140 		.word	1073818624
 1995 01d8 00040040 		.word	1073742848
 1996 01dc 00080040 		.word	1073743872
 1997              		.cfi_endproc
 1998              	.LFE81:
 2000              		.section	.text.HAL_TIM_OC_Stop_IT,"ax",%progbits
 2001              		.align	1
 2002              		.global	HAL_TIM_OC_Stop_IT
 2003              		.syntax unified
 2004              		.thumb
 2005              		.thumb_func
 2007              	HAL_TIM_OC_Stop_IT:
 2008              	.LFB82:
 959:Drivers/STM32F1xx_HAL_Driver/Src/stm32f1xx_hal_tim.c **** 
 960:Drivers/STM32F1xx_HAL_Driver/Src/stm32f1xx_hal_tim.c **** /**
 961:Drivers/STM32F1xx_HAL_Driver/Src/stm32f1xx_hal_tim.c ****   * @brief  Stops the TIM Output Compare signal generation in interrupt mode.
 962:Drivers/STM32F1xx_HAL_Driver/Src/stm32f1xx_hal_tim.c ****   * @param  htim TIM Output Compare handle
 963:Drivers/STM32F1xx_HAL_Driver/Src/stm32f1xx_hal_tim.c ****   * @param  Channel TIM Channel to be disabled
 964:Drivers/STM32F1xx_HAL_Driver/Src/stm32f1xx_hal_tim.c ****   *          This parameter can be one of the following values:
 965:Drivers/STM32F1xx_HAL_Driver/Src/stm32f1xx_hal_tim.c ****   *            @arg TIM_CHANNEL_1: TIM Channel 1 selected
 966:Drivers/STM32F1xx_HAL_Driver/Src/stm32f1xx_hal_tim.c ****   *            @arg TIM_CHANNEL_2: TIM Channel 2 selected
 967:Drivers/STM32F1xx_HAL_Driver/Src/stm32f1xx_hal_tim.c ****   *            @arg TIM_CHANNEL_3: TIM Channel 3 selected
 968:Drivers/STM32F1xx_HAL_Driver/Src/stm32f1xx_hal_tim.c ****   *            @arg TIM_CHANNEL_4: TIM Channel 4 selected
 969:Drivers/STM32F1xx_HAL_Driver/Src/stm32f1xx_hal_tim.c ****   * @retval HAL status
 970:Drivers/STM32F1xx_HAL_Driver/Src/stm32f1xx_hal_tim.c ****   */
 971:Drivers/STM32F1xx_HAL_Driver/Src/stm32f1xx_hal_tim.c **** HAL_StatusTypeDef HAL_TIM_OC_Stop_IT(TIM_HandleTypeDef *htim, uint32_t Channel)
 972:Drivers/STM32F1xx_HAL_Driver/Src/stm32f1xx_hal_tim.c **** {
 2009              		.loc 1 972 1
 2010              		.cfi_startproc
 2011              		@ args = 0, pretend = 0, frame = 16
 2012              		@ frame_needed = 1, uses_anonymous_args = 0
 2013 0000 80B5     		push	{r7, lr}
 2014              	.LCFI93:
 2015              		.cfi_def_cfa_offset 8
 2016              		.cfi_offset 7, -8
 2017              		.cfi_offset 14, -4
 2018 0002 84B0     		sub	sp, sp, #16
 2019              	.LCFI94:
 2020              		.cfi_def_cfa_offset 24
 2021 0004 00AF     		add	r7, sp, #0
ARM GAS  /tmp/ccW22bxd.s 			page 53


 2022              	.LCFI95:
 2023              		.cfi_def_cfa_register 7
 2024 0006 7860     		str	r0, [r7, #4]
 2025 0008 3960     		str	r1, [r7]
 973:Drivers/STM32F1xx_HAL_Driver/Src/stm32f1xx_hal_tim.c ****   HAL_StatusTypeDef status = HAL_OK;
 2026              		.loc 1 973 21
 2027 000a 0023     		movs	r3, #0
 2028 000c FB73     		strb	r3, [r7, #15]
 974:Drivers/STM32F1xx_HAL_Driver/Src/stm32f1xx_hal_tim.c **** 
 975:Drivers/STM32F1xx_HAL_Driver/Src/stm32f1xx_hal_tim.c ****   /* Check the parameters */
 976:Drivers/STM32F1xx_HAL_Driver/Src/stm32f1xx_hal_tim.c ****   assert_param(IS_TIM_CCX_INSTANCE(htim->Instance, Channel));
 977:Drivers/STM32F1xx_HAL_Driver/Src/stm32f1xx_hal_tim.c **** 
 978:Drivers/STM32F1xx_HAL_Driver/Src/stm32f1xx_hal_tim.c ****   switch (Channel)
 2029              		.loc 1 978 3
 2030 000e 3B68     		ldr	r3, [r7]
 2031 0010 0C2B     		cmp	r3, #12
 2032 0012 41D8     		bhi	.L125
 2033 0014 01A2     		adr	r2, .L127
 2034 0016 52F823F0 		ldr	pc, [r2, r3, lsl #2]
 2035 001a 00BF     		.p2align 2
 2036              	.L127:
 2037 001c 51000000 		.word	.L130+1
 2038 0020 99000000 		.word	.L125+1
 2039 0024 99000000 		.word	.L125+1
 2040 0028 99000000 		.word	.L125+1
 2041 002c 63000000 		.word	.L129+1
 2042 0030 99000000 		.word	.L125+1
 2043 0034 99000000 		.word	.L125+1
 2044 0038 99000000 		.word	.L125+1
 2045 003c 75000000 		.word	.L128+1
 2046 0040 99000000 		.word	.L125+1
 2047 0044 99000000 		.word	.L125+1
 2048 0048 99000000 		.word	.L125+1
 2049 004c 87000000 		.word	.L126+1
 2050              		.p2align 1
 2051              	.L130:
 979:Drivers/STM32F1xx_HAL_Driver/Src/stm32f1xx_hal_tim.c ****   {
 980:Drivers/STM32F1xx_HAL_Driver/Src/stm32f1xx_hal_tim.c ****     case TIM_CHANNEL_1:
 981:Drivers/STM32F1xx_HAL_Driver/Src/stm32f1xx_hal_tim.c ****     {
 982:Drivers/STM32F1xx_HAL_Driver/Src/stm32f1xx_hal_tim.c ****       /* Disable the TIM Capture/Compare 1 interrupt */
 983:Drivers/STM32F1xx_HAL_Driver/Src/stm32f1xx_hal_tim.c ****       __HAL_TIM_DISABLE_IT(htim, TIM_IT_CC1);
 2052              		.loc 1 983 7
 2053 0050 7B68     		ldr	r3, [r7, #4]
 2054 0052 1B68     		ldr	r3, [r3]
 2055 0054 DA68     		ldr	r2, [r3, #12]
 2056 0056 7B68     		ldr	r3, [r7, #4]
 2057 0058 1B68     		ldr	r3, [r3]
 2058 005a 22F00202 		bic	r2, r2, #2
 2059 005e DA60     		str	r2, [r3, #12]
 984:Drivers/STM32F1xx_HAL_Driver/Src/stm32f1xx_hal_tim.c ****       break;
 2060              		.loc 1 984 7
 2061 0060 1DE0     		b	.L131
 2062              	.L129:
 985:Drivers/STM32F1xx_HAL_Driver/Src/stm32f1xx_hal_tim.c ****     }
 986:Drivers/STM32F1xx_HAL_Driver/Src/stm32f1xx_hal_tim.c **** 
 987:Drivers/STM32F1xx_HAL_Driver/Src/stm32f1xx_hal_tim.c ****     case TIM_CHANNEL_2:
 988:Drivers/STM32F1xx_HAL_Driver/Src/stm32f1xx_hal_tim.c ****     {
ARM GAS  /tmp/ccW22bxd.s 			page 54


 989:Drivers/STM32F1xx_HAL_Driver/Src/stm32f1xx_hal_tim.c ****       /* Disable the TIM Capture/Compare 2 interrupt */
 990:Drivers/STM32F1xx_HAL_Driver/Src/stm32f1xx_hal_tim.c ****       __HAL_TIM_DISABLE_IT(htim, TIM_IT_CC2);
 2063              		.loc 1 990 7
 2064 0062 7B68     		ldr	r3, [r7, #4]
 2065 0064 1B68     		ldr	r3, [r3]
 2066 0066 DA68     		ldr	r2, [r3, #12]
 2067 0068 7B68     		ldr	r3, [r7, #4]
 2068 006a 1B68     		ldr	r3, [r3]
 2069 006c 22F00402 		bic	r2, r2, #4
 2070 0070 DA60     		str	r2, [r3, #12]
 991:Drivers/STM32F1xx_HAL_Driver/Src/stm32f1xx_hal_tim.c ****       break;
 2071              		.loc 1 991 7
 2072 0072 14E0     		b	.L131
 2073              	.L128:
 992:Drivers/STM32F1xx_HAL_Driver/Src/stm32f1xx_hal_tim.c ****     }
 993:Drivers/STM32F1xx_HAL_Driver/Src/stm32f1xx_hal_tim.c **** 
 994:Drivers/STM32F1xx_HAL_Driver/Src/stm32f1xx_hal_tim.c ****     case TIM_CHANNEL_3:
 995:Drivers/STM32F1xx_HAL_Driver/Src/stm32f1xx_hal_tim.c ****     {
 996:Drivers/STM32F1xx_HAL_Driver/Src/stm32f1xx_hal_tim.c ****       /* Disable the TIM Capture/Compare 3 interrupt */
 997:Drivers/STM32F1xx_HAL_Driver/Src/stm32f1xx_hal_tim.c ****       __HAL_TIM_DISABLE_IT(htim, TIM_IT_CC3);
 2074              		.loc 1 997 7
 2075 0074 7B68     		ldr	r3, [r7, #4]
 2076 0076 1B68     		ldr	r3, [r3]
 2077 0078 DA68     		ldr	r2, [r3, #12]
 2078 007a 7B68     		ldr	r3, [r7, #4]
 2079 007c 1B68     		ldr	r3, [r3]
 2080 007e 22F00802 		bic	r2, r2, #8
 2081 0082 DA60     		str	r2, [r3, #12]
 998:Drivers/STM32F1xx_HAL_Driver/Src/stm32f1xx_hal_tim.c ****       break;
 2082              		.loc 1 998 7
 2083 0084 0BE0     		b	.L131
 2084              	.L126:
 999:Drivers/STM32F1xx_HAL_Driver/Src/stm32f1xx_hal_tim.c ****     }
1000:Drivers/STM32F1xx_HAL_Driver/Src/stm32f1xx_hal_tim.c **** 
1001:Drivers/STM32F1xx_HAL_Driver/Src/stm32f1xx_hal_tim.c ****     case TIM_CHANNEL_4:
1002:Drivers/STM32F1xx_HAL_Driver/Src/stm32f1xx_hal_tim.c ****     {
1003:Drivers/STM32F1xx_HAL_Driver/Src/stm32f1xx_hal_tim.c ****       /* Disable the TIM Capture/Compare 4 interrupt */
1004:Drivers/STM32F1xx_HAL_Driver/Src/stm32f1xx_hal_tim.c ****       __HAL_TIM_DISABLE_IT(htim, TIM_IT_CC4);
 2085              		.loc 1 1004 7
 2086 0086 7B68     		ldr	r3, [r7, #4]
 2087 0088 1B68     		ldr	r3, [r3]
 2088 008a DA68     		ldr	r2, [r3, #12]
 2089 008c 7B68     		ldr	r3, [r7, #4]
 2090 008e 1B68     		ldr	r3, [r3]
 2091 0090 22F01002 		bic	r2, r2, #16
 2092 0094 DA60     		str	r2, [r3, #12]
1005:Drivers/STM32F1xx_HAL_Driver/Src/stm32f1xx_hal_tim.c ****       break;
 2093              		.loc 1 1005 7
 2094 0096 02E0     		b	.L131
 2095              	.L125:
1006:Drivers/STM32F1xx_HAL_Driver/Src/stm32f1xx_hal_tim.c ****     }
1007:Drivers/STM32F1xx_HAL_Driver/Src/stm32f1xx_hal_tim.c **** 
1008:Drivers/STM32F1xx_HAL_Driver/Src/stm32f1xx_hal_tim.c ****     default:
1009:Drivers/STM32F1xx_HAL_Driver/Src/stm32f1xx_hal_tim.c ****       status = HAL_ERROR;
 2096              		.loc 1 1009 14
 2097 0098 0123     		movs	r3, #1
 2098 009a FB73     		strb	r3, [r7, #15]
ARM GAS  /tmp/ccW22bxd.s 			page 55


1010:Drivers/STM32F1xx_HAL_Driver/Src/stm32f1xx_hal_tim.c ****       break;
 2099              		.loc 1 1010 7
 2100 009c 00BF     		nop
 2101              	.L131:
1011:Drivers/STM32F1xx_HAL_Driver/Src/stm32f1xx_hal_tim.c ****   }
1012:Drivers/STM32F1xx_HAL_Driver/Src/stm32f1xx_hal_tim.c **** 
1013:Drivers/STM32F1xx_HAL_Driver/Src/stm32f1xx_hal_tim.c ****   if (status == HAL_OK)
 2102              		.loc 1 1013 6
 2103 009e FB7B     		ldrb	r3, [r7, #15]	@ zero_extendqisi2
 2104 00a0 002B     		cmp	r3, #0
 2105 00a2 57D1     		bne	.L132
1014:Drivers/STM32F1xx_HAL_Driver/Src/stm32f1xx_hal_tim.c ****   {
1015:Drivers/STM32F1xx_HAL_Driver/Src/stm32f1xx_hal_tim.c ****     /* Disable the Output compare channel */
1016:Drivers/STM32F1xx_HAL_Driver/Src/stm32f1xx_hal_tim.c ****     TIM_CCxChannelCmd(htim->Instance, Channel, TIM_CCx_DISABLE);
 2106              		.loc 1 1016 5
 2107 00a4 7B68     		ldr	r3, [r7, #4]
 2108 00a6 1B68     		ldr	r3, [r3]
 2109 00a8 0022     		movs	r2, #0
 2110 00aa 3968     		ldr	r1, [r7]
 2111 00ac 1846     		mov	r0, r3
 2112 00ae FFF7FEFF 		bl	TIM_CCxChannelCmd
1017:Drivers/STM32F1xx_HAL_Driver/Src/stm32f1xx_hal_tim.c **** 
1018:Drivers/STM32F1xx_HAL_Driver/Src/stm32f1xx_hal_tim.c ****     if (IS_TIM_BREAK_INSTANCE(htim->Instance) != RESET)
 2113              		.loc 1 1018 9
 2114 00b2 7B68     		ldr	r3, [r7, #4]
 2115 00b4 1B68     		ldr	r3, [r3]
 2116              		.loc 1 1018 8
 2117 00b6 2A4A     		ldr	r2, .L141
 2118 00b8 9342     		cmp	r3, r2
 2119 00ba 17D1     		bne	.L133
1019:Drivers/STM32F1xx_HAL_Driver/Src/stm32f1xx_hal_tim.c ****     {
1020:Drivers/STM32F1xx_HAL_Driver/Src/stm32f1xx_hal_tim.c ****       /* Disable the Main Output */
1021:Drivers/STM32F1xx_HAL_Driver/Src/stm32f1xx_hal_tim.c ****       __HAL_TIM_MOE_DISABLE(htim);
 2120              		.loc 1 1021 7
 2121 00bc 7B68     		ldr	r3, [r7, #4]
 2122 00be 1B68     		ldr	r3, [r3]
 2123 00c0 1A6A     		ldr	r2, [r3, #32]
 2124 00c2 41F21113 		movw	r3, #4369
 2125 00c6 1340     		ands	r3, r3, r2
 2126 00c8 002B     		cmp	r3, #0
 2127 00ca 0FD1     		bne	.L133
 2128              		.loc 1 1021 7 is_stmt 0 discriminator 1
 2129 00cc 7B68     		ldr	r3, [r7, #4]
 2130 00ce 1B68     		ldr	r3, [r3]
 2131 00d0 1A6A     		ldr	r2, [r3, #32]
 2132 00d2 40F24443 		movw	r3, #1092
 2133 00d6 1340     		ands	r3, r3, r2
 2134 00d8 002B     		cmp	r3, #0
 2135 00da 07D1     		bne	.L133
 2136              		.loc 1 1021 7 discriminator 2
 2137 00dc 7B68     		ldr	r3, [r7, #4]
 2138 00de 1B68     		ldr	r3, [r3]
 2139 00e0 5A6C     		ldr	r2, [r3, #68]
 2140 00e2 7B68     		ldr	r3, [r7, #4]
 2141 00e4 1B68     		ldr	r3, [r3]
 2142 00e6 22F40042 		bic	r2, r2, #32768
 2143 00ea 5A64     		str	r2, [r3, #68]
ARM GAS  /tmp/ccW22bxd.s 			page 56


 2144              	.L133:
1022:Drivers/STM32F1xx_HAL_Driver/Src/stm32f1xx_hal_tim.c ****     }
1023:Drivers/STM32F1xx_HAL_Driver/Src/stm32f1xx_hal_tim.c **** 
1024:Drivers/STM32F1xx_HAL_Driver/Src/stm32f1xx_hal_tim.c ****     /* Disable the Peripheral */
1025:Drivers/STM32F1xx_HAL_Driver/Src/stm32f1xx_hal_tim.c ****     __HAL_TIM_DISABLE(htim);
 2145              		.loc 1 1025 5 is_stmt 1
 2146 00ec 7B68     		ldr	r3, [r7, #4]
 2147 00ee 1B68     		ldr	r3, [r3]
 2148 00f0 1A6A     		ldr	r2, [r3, #32]
 2149 00f2 41F21113 		movw	r3, #4369
 2150 00f6 1340     		ands	r3, r3, r2
 2151 00f8 002B     		cmp	r3, #0
 2152 00fa 0FD1     		bne	.L134
 2153              		.loc 1 1025 5 is_stmt 0 discriminator 1
 2154 00fc 7B68     		ldr	r3, [r7, #4]
 2155 00fe 1B68     		ldr	r3, [r3]
 2156 0100 1A6A     		ldr	r2, [r3, #32]
 2157 0102 40F24443 		movw	r3, #1092
 2158 0106 1340     		ands	r3, r3, r2
 2159 0108 002B     		cmp	r3, #0
 2160 010a 07D1     		bne	.L134
 2161              		.loc 1 1025 5 discriminator 2
 2162 010c 7B68     		ldr	r3, [r7, #4]
 2163 010e 1B68     		ldr	r3, [r3]
 2164 0110 1A68     		ldr	r2, [r3]
 2165 0112 7B68     		ldr	r3, [r7, #4]
 2166 0114 1B68     		ldr	r3, [r3]
 2167 0116 22F00102 		bic	r2, r2, #1
 2168 011a 1A60     		str	r2, [r3]
 2169              	.L134:
1026:Drivers/STM32F1xx_HAL_Driver/Src/stm32f1xx_hal_tim.c **** 
1027:Drivers/STM32F1xx_HAL_Driver/Src/stm32f1xx_hal_tim.c ****     /* Set the TIM channel state */
1028:Drivers/STM32F1xx_HAL_Driver/Src/stm32f1xx_hal_tim.c ****     TIM_CHANNEL_STATE_SET(htim, Channel, HAL_TIM_CHANNEL_STATE_READY);
 2170              		.loc 1 1028 5 is_stmt 1
 2171 011c 3B68     		ldr	r3, [r7]
 2172 011e 002B     		cmp	r3, #0
 2173 0120 04D1     		bne	.L135
 2174              		.loc 1 1028 5 is_stmt 0 discriminator 1
 2175 0122 7B68     		ldr	r3, [r7, #4]
 2176 0124 0122     		movs	r2, #1
 2177 0126 83F83E20 		strb	r2, [r3, #62]
 2178 012a 13E0     		b	.L132
 2179              	.L135:
 2180              		.loc 1 1028 5 discriminator 2
 2181 012c 3B68     		ldr	r3, [r7]
 2182 012e 042B     		cmp	r3, #4
 2183 0130 04D1     		bne	.L136
 2184              		.loc 1 1028 5 discriminator 3
 2185 0132 7B68     		ldr	r3, [r7, #4]
 2186 0134 0122     		movs	r2, #1
 2187 0136 83F83F20 		strb	r2, [r3, #63]
 2188 013a 0BE0     		b	.L132
 2189              	.L136:
 2190              		.loc 1 1028 5 discriminator 4
 2191 013c 3B68     		ldr	r3, [r7]
 2192 013e 082B     		cmp	r3, #8
 2193 0140 04D1     		bne	.L138
ARM GAS  /tmp/ccW22bxd.s 			page 57


 2194              		.loc 1 1028 5 discriminator 6
 2195 0142 7B68     		ldr	r3, [r7, #4]
 2196 0144 0122     		movs	r2, #1
 2197 0146 83F84020 		strb	r2, [r3, #64]
 2198 014a 03E0     		b	.L132
 2199              	.L138:
 2200              		.loc 1 1028 5 discriminator 7
 2201 014c 7B68     		ldr	r3, [r7, #4]
 2202 014e 0122     		movs	r2, #1
 2203 0150 83F84120 		strb	r2, [r3, #65]
 2204              	.L132:
1029:Drivers/STM32F1xx_HAL_Driver/Src/stm32f1xx_hal_tim.c ****   }
1030:Drivers/STM32F1xx_HAL_Driver/Src/stm32f1xx_hal_tim.c **** 
1031:Drivers/STM32F1xx_HAL_Driver/Src/stm32f1xx_hal_tim.c ****   /* Return function status */
1032:Drivers/STM32F1xx_HAL_Driver/Src/stm32f1xx_hal_tim.c ****   return status;
 2205              		.loc 1 1032 10 is_stmt 1
 2206 0154 FB7B     		ldrb	r3, [r7, #15]	@ zero_extendqisi2
1033:Drivers/STM32F1xx_HAL_Driver/Src/stm32f1xx_hal_tim.c **** }
 2207              		.loc 1 1033 1
 2208 0156 1846     		mov	r0, r3
 2209 0158 1037     		adds	r7, r7, #16
 2210              	.LCFI96:
 2211              		.cfi_def_cfa_offset 8
 2212 015a BD46     		mov	sp, r7
 2213              	.LCFI97:
 2214              		.cfi_def_cfa_register 13
 2215              		@ sp needed
 2216 015c 80BD     		pop	{r7, pc}
 2217              	.L142:
 2218 015e 00BF     		.align	2
 2219              	.L141:
 2220 0160 002C0140 		.word	1073818624
 2221              		.cfi_endproc
 2222              	.LFE82:
 2224              		.section	.text.HAL_TIM_OC_Start_DMA,"ax",%progbits
 2225              		.align	1
 2226              		.global	HAL_TIM_OC_Start_DMA
 2227              		.syntax unified
 2228              		.thumb
 2229              		.thumb_func
 2231              	HAL_TIM_OC_Start_DMA:
 2232              	.LFB83:
1034:Drivers/STM32F1xx_HAL_Driver/Src/stm32f1xx_hal_tim.c **** 
1035:Drivers/STM32F1xx_HAL_Driver/Src/stm32f1xx_hal_tim.c **** /**
1036:Drivers/STM32F1xx_HAL_Driver/Src/stm32f1xx_hal_tim.c ****   * @brief  Starts the TIM Output Compare signal generation in DMA mode.
1037:Drivers/STM32F1xx_HAL_Driver/Src/stm32f1xx_hal_tim.c ****   * @param  htim TIM Output Compare handle
1038:Drivers/STM32F1xx_HAL_Driver/Src/stm32f1xx_hal_tim.c ****   * @param  Channel TIM Channel to be enabled
1039:Drivers/STM32F1xx_HAL_Driver/Src/stm32f1xx_hal_tim.c ****   *          This parameter can be one of the following values:
1040:Drivers/STM32F1xx_HAL_Driver/Src/stm32f1xx_hal_tim.c ****   *            @arg TIM_CHANNEL_1: TIM Channel 1 selected
1041:Drivers/STM32F1xx_HAL_Driver/Src/stm32f1xx_hal_tim.c ****   *            @arg TIM_CHANNEL_2: TIM Channel 2 selected
1042:Drivers/STM32F1xx_HAL_Driver/Src/stm32f1xx_hal_tim.c ****   *            @arg TIM_CHANNEL_3: TIM Channel 3 selected
1043:Drivers/STM32F1xx_HAL_Driver/Src/stm32f1xx_hal_tim.c ****   *            @arg TIM_CHANNEL_4: TIM Channel 4 selected
1044:Drivers/STM32F1xx_HAL_Driver/Src/stm32f1xx_hal_tim.c ****   * @param  pData The source Buffer address.
1045:Drivers/STM32F1xx_HAL_Driver/Src/stm32f1xx_hal_tim.c ****   * @param  Length The length of data to be transferred from memory to TIM peripheral
1046:Drivers/STM32F1xx_HAL_Driver/Src/stm32f1xx_hal_tim.c ****   * @retval HAL status
1047:Drivers/STM32F1xx_HAL_Driver/Src/stm32f1xx_hal_tim.c ****   */
1048:Drivers/STM32F1xx_HAL_Driver/Src/stm32f1xx_hal_tim.c **** HAL_StatusTypeDef HAL_TIM_OC_Start_DMA(TIM_HandleTypeDef *htim, uint32_t Channel, const uint32_t *p
ARM GAS  /tmp/ccW22bxd.s 			page 58


1049:Drivers/STM32F1xx_HAL_Driver/Src/stm32f1xx_hal_tim.c ****                                        uint16_t Length)
1050:Drivers/STM32F1xx_HAL_Driver/Src/stm32f1xx_hal_tim.c **** {
 2233              		.loc 1 1050 1
 2234              		.cfi_startproc
 2235              		@ args = 0, pretend = 0, frame = 24
 2236              		@ frame_needed = 1, uses_anonymous_args = 0
 2237 0000 80B5     		push	{r7, lr}
 2238              	.LCFI98:
 2239              		.cfi_def_cfa_offset 8
 2240              		.cfi_offset 7, -8
 2241              		.cfi_offset 14, -4
 2242 0002 86B0     		sub	sp, sp, #24
 2243              	.LCFI99:
 2244              		.cfi_def_cfa_offset 32
 2245 0004 00AF     		add	r7, sp, #0
 2246              	.LCFI100:
 2247              		.cfi_def_cfa_register 7
 2248 0006 F860     		str	r0, [r7, #12]
 2249 0008 B960     		str	r1, [r7, #8]
 2250 000a 7A60     		str	r2, [r7, #4]
 2251 000c 7B80     		strh	r3, [r7, #2]	@ movhi
1051:Drivers/STM32F1xx_HAL_Driver/Src/stm32f1xx_hal_tim.c ****   HAL_StatusTypeDef status = HAL_OK;
 2252              		.loc 1 1051 21
 2253 000e 0023     		movs	r3, #0
 2254 0010 FB75     		strb	r3, [r7, #23]
1052:Drivers/STM32F1xx_HAL_Driver/Src/stm32f1xx_hal_tim.c ****   uint32_t tmpsmcr;
1053:Drivers/STM32F1xx_HAL_Driver/Src/stm32f1xx_hal_tim.c **** 
1054:Drivers/STM32F1xx_HAL_Driver/Src/stm32f1xx_hal_tim.c ****   /* Check the parameters */
1055:Drivers/STM32F1xx_HAL_Driver/Src/stm32f1xx_hal_tim.c ****   assert_param(IS_TIM_CCX_INSTANCE(htim->Instance, Channel));
1056:Drivers/STM32F1xx_HAL_Driver/Src/stm32f1xx_hal_tim.c **** 
1057:Drivers/STM32F1xx_HAL_Driver/Src/stm32f1xx_hal_tim.c ****   /* Set the TIM channel state */
1058:Drivers/STM32F1xx_HAL_Driver/Src/stm32f1xx_hal_tim.c ****   if (TIM_CHANNEL_STATE_GET(htim, Channel) == HAL_TIM_CHANNEL_STATE_BUSY)
 2255              		.loc 1 1058 44
 2256 0012 BB68     		ldr	r3, [r7, #8]
 2257 0014 002B     		cmp	r3, #0
 2258 0016 09D1     		bne	.L144
 2259              		.loc 1 1058 7 discriminator 1
 2260 0018 FB68     		ldr	r3, [r7, #12]
 2261 001a 93F83E30 		ldrb	r3, [r3, #62]
 2262 001e DBB2     		uxtb	r3, r3
 2263              		.loc 1 1058 44 discriminator 1
 2264 0020 022B     		cmp	r3, #2
 2265 0022 0CBF     		ite	eq
 2266 0024 0123     		moveq	r3, #1
 2267 0026 0023     		movne	r3, #0
 2268 0028 DBB2     		uxtb	r3, r3
 2269 002a 22E0     		b	.L145
 2270              	.L144:
 2271              		.loc 1 1058 44 is_stmt 0 discriminator 2
 2272 002c BB68     		ldr	r3, [r7, #8]
 2273 002e 042B     		cmp	r3, #4
 2274 0030 09D1     		bne	.L146
 2275              		.loc 1 1058 7 is_stmt 1 discriminator 4
 2276 0032 FB68     		ldr	r3, [r7, #12]
 2277 0034 93F83F30 		ldrb	r3, [r3, #63]
 2278 0038 DBB2     		uxtb	r3, r3
 2279              		.loc 1 1058 44 discriminator 4
ARM GAS  /tmp/ccW22bxd.s 			page 59


 2280 003a 022B     		cmp	r3, #2
 2281 003c 0CBF     		ite	eq
 2282 003e 0123     		moveq	r3, #1
 2283 0040 0023     		movne	r3, #0
 2284 0042 DBB2     		uxtb	r3, r3
 2285 0044 15E0     		b	.L145
 2286              	.L146:
 2287              		.loc 1 1058 44 is_stmt 0 discriminator 5
 2288 0046 BB68     		ldr	r3, [r7, #8]
 2289 0048 082B     		cmp	r3, #8
 2290 004a 09D1     		bne	.L148
 2291              		.loc 1 1058 7 is_stmt 1 discriminator 7
 2292 004c FB68     		ldr	r3, [r7, #12]
 2293 004e 93F84030 		ldrb	r3, [r3, #64]
 2294 0052 DBB2     		uxtb	r3, r3
 2295              		.loc 1 1058 44 discriminator 7
 2296 0054 022B     		cmp	r3, #2
 2297 0056 0CBF     		ite	eq
 2298 0058 0123     		moveq	r3, #1
 2299 005a 0023     		movne	r3, #0
 2300 005c DBB2     		uxtb	r3, r3
 2301 005e 08E0     		b	.L145
 2302              	.L148:
 2303              		.loc 1 1058 7 discriminator 8
 2304 0060 FB68     		ldr	r3, [r7, #12]
 2305 0062 93F84130 		ldrb	r3, [r3, #65]
 2306 0066 DBB2     		uxtb	r3, r3
 2307              		.loc 1 1058 44 discriminator 8
 2308 0068 022B     		cmp	r3, #2
 2309 006a 0CBF     		ite	eq
 2310 006c 0123     		moveq	r3, #1
 2311 006e 0023     		movne	r3, #0
 2312 0070 DBB2     		uxtb	r3, r3
 2313              	.L145:
 2314              		.loc 1 1058 6 discriminator 12
 2315 0072 002B     		cmp	r3, #0
 2316 0074 01D0     		beq	.L150
1059:Drivers/STM32F1xx_HAL_Driver/Src/stm32f1xx_hal_tim.c ****   {
1060:Drivers/STM32F1xx_HAL_Driver/Src/stm32f1xx_hal_tim.c ****     return HAL_BUSY;
 2317              		.loc 1 1060 12
 2318 0076 0223     		movs	r3, #2
 2319 0078 53E1     		b	.L151
 2320              	.L150:
1061:Drivers/STM32F1xx_HAL_Driver/Src/stm32f1xx_hal_tim.c ****   }
1062:Drivers/STM32F1xx_HAL_Driver/Src/stm32f1xx_hal_tim.c ****   else if (TIM_CHANNEL_STATE_GET(htim, Channel) == HAL_TIM_CHANNEL_STATE_READY)
 2321              		.loc 1 1062 49
 2322 007a BB68     		ldr	r3, [r7, #8]
 2323 007c 002B     		cmp	r3, #0
 2324 007e 09D1     		bne	.L152
 2325              		.loc 1 1062 12 discriminator 1
 2326 0080 FB68     		ldr	r3, [r7, #12]
 2327 0082 93F83E30 		ldrb	r3, [r3, #62]
 2328 0086 DBB2     		uxtb	r3, r3
 2329              		.loc 1 1062 49 discriminator 1
 2330 0088 012B     		cmp	r3, #1
 2331 008a 0CBF     		ite	eq
 2332 008c 0123     		moveq	r3, #1
ARM GAS  /tmp/ccW22bxd.s 			page 60


 2333 008e 0023     		movne	r3, #0
 2334 0090 DBB2     		uxtb	r3, r3
 2335 0092 22E0     		b	.L153
 2336              	.L152:
 2337              		.loc 1 1062 49 is_stmt 0 discriminator 2
 2338 0094 BB68     		ldr	r3, [r7, #8]
 2339 0096 042B     		cmp	r3, #4
 2340 0098 09D1     		bne	.L154
 2341              		.loc 1 1062 12 is_stmt 1 discriminator 4
 2342 009a FB68     		ldr	r3, [r7, #12]
 2343 009c 93F83F30 		ldrb	r3, [r3, #63]
 2344 00a0 DBB2     		uxtb	r3, r3
 2345              		.loc 1 1062 49 discriminator 4
 2346 00a2 012B     		cmp	r3, #1
 2347 00a4 0CBF     		ite	eq
 2348 00a6 0123     		moveq	r3, #1
 2349 00a8 0023     		movne	r3, #0
 2350 00aa DBB2     		uxtb	r3, r3
 2351 00ac 15E0     		b	.L153
 2352              	.L154:
 2353              		.loc 1 1062 49 is_stmt 0 discriminator 5
 2354 00ae BB68     		ldr	r3, [r7, #8]
 2355 00b0 082B     		cmp	r3, #8
 2356 00b2 09D1     		bne	.L156
 2357              		.loc 1 1062 12 is_stmt 1 discriminator 7
 2358 00b4 FB68     		ldr	r3, [r7, #12]
 2359 00b6 93F84030 		ldrb	r3, [r3, #64]
 2360 00ba DBB2     		uxtb	r3, r3
 2361              		.loc 1 1062 49 discriminator 7
 2362 00bc 012B     		cmp	r3, #1
 2363 00be 0CBF     		ite	eq
 2364 00c0 0123     		moveq	r3, #1
 2365 00c2 0023     		movne	r3, #0
 2366 00c4 DBB2     		uxtb	r3, r3
 2367 00c6 08E0     		b	.L153
 2368              	.L156:
 2369              		.loc 1 1062 12 discriminator 8
 2370 00c8 FB68     		ldr	r3, [r7, #12]
 2371 00ca 93F84130 		ldrb	r3, [r3, #65]
 2372 00ce DBB2     		uxtb	r3, r3
 2373              		.loc 1 1062 49 discriminator 8
 2374 00d0 012B     		cmp	r3, #1
 2375 00d2 0CBF     		ite	eq
 2376 00d4 0123     		moveq	r3, #1
 2377 00d6 0023     		movne	r3, #0
 2378 00d8 DBB2     		uxtb	r3, r3
 2379              	.L153:
 2380              		.loc 1 1062 11 discriminator 12
 2381 00da 002B     		cmp	r3, #0
 2382 00dc 24D0     		beq	.L158
1063:Drivers/STM32F1xx_HAL_Driver/Src/stm32f1xx_hal_tim.c ****   {
1064:Drivers/STM32F1xx_HAL_Driver/Src/stm32f1xx_hal_tim.c ****     if ((pData == NULL) || (Length == 0U))
 2383              		.loc 1 1064 8
 2384 00de 7B68     		ldr	r3, [r7, #4]
 2385 00e0 002B     		cmp	r3, #0
 2386 00e2 02D0     		beq	.L159
 2387              		.loc 1 1064 25 discriminator 1
ARM GAS  /tmp/ccW22bxd.s 			page 61


 2388 00e4 7B88     		ldrh	r3, [r7, #2]
 2389 00e6 002B     		cmp	r3, #0
 2390 00e8 01D1     		bne	.L160
 2391              	.L159:
1065:Drivers/STM32F1xx_HAL_Driver/Src/stm32f1xx_hal_tim.c ****     {
1066:Drivers/STM32F1xx_HAL_Driver/Src/stm32f1xx_hal_tim.c ****       return HAL_ERROR;
 2392              		.loc 1 1066 14
 2393 00ea 0123     		movs	r3, #1
 2394 00ec 19E1     		b	.L151
 2395              	.L160:
1067:Drivers/STM32F1xx_HAL_Driver/Src/stm32f1xx_hal_tim.c ****     }
1068:Drivers/STM32F1xx_HAL_Driver/Src/stm32f1xx_hal_tim.c ****     else
1069:Drivers/STM32F1xx_HAL_Driver/Src/stm32f1xx_hal_tim.c ****     {
1070:Drivers/STM32F1xx_HAL_Driver/Src/stm32f1xx_hal_tim.c ****       TIM_CHANNEL_STATE_SET(htim, Channel, HAL_TIM_CHANNEL_STATE_BUSY);
 2396              		.loc 1 1070 7
 2397 00ee BB68     		ldr	r3, [r7, #8]
 2398 00f0 002B     		cmp	r3, #0
 2399 00f2 04D1     		bne	.L161
 2400              		.loc 1 1070 7 is_stmt 0 discriminator 1
 2401 00f4 FB68     		ldr	r3, [r7, #12]
 2402 00f6 0222     		movs	r2, #2
 2403 00f8 83F83E20 		strb	r2, [r3, #62]
 2404 00fc 16E0     		b	.L162
 2405              	.L161:
 2406              		.loc 1 1070 7 discriminator 2
 2407 00fe BB68     		ldr	r3, [r7, #8]
 2408 0100 042B     		cmp	r3, #4
 2409 0102 04D1     		bne	.L163
 2410              		.loc 1 1070 7 discriminator 3
 2411 0104 FB68     		ldr	r3, [r7, #12]
 2412 0106 0222     		movs	r2, #2
 2413 0108 83F83F20 		strb	r2, [r3, #63]
 2414 010c 0EE0     		b	.L162
 2415              	.L163:
 2416              		.loc 1 1070 7 discriminator 4
 2417 010e BB68     		ldr	r3, [r7, #8]
 2418 0110 082B     		cmp	r3, #8
 2419 0112 04D1     		bne	.L165
 2420              		.loc 1 1070 7 discriminator 6
 2421 0114 FB68     		ldr	r3, [r7, #12]
 2422 0116 0222     		movs	r2, #2
 2423 0118 83F84020 		strb	r2, [r3, #64]
 2424 011c 06E0     		b	.L162
 2425              	.L165:
 2426              		.loc 1 1070 7 discriminator 7
 2427 011e FB68     		ldr	r3, [r7, #12]
 2428 0120 0222     		movs	r2, #2
 2429 0122 83F84120 		strb	r2, [r3, #65]
 2430 0126 01E0     		b	.L162
 2431              	.L158:
1071:Drivers/STM32F1xx_HAL_Driver/Src/stm32f1xx_hal_tim.c ****     }
1072:Drivers/STM32F1xx_HAL_Driver/Src/stm32f1xx_hal_tim.c ****   }
1073:Drivers/STM32F1xx_HAL_Driver/Src/stm32f1xx_hal_tim.c ****   else
1074:Drivers/STM32F1xx_HAL_Driver/Src/stm32f1xx_hal_tim.c ****   {
1075:Drivers/STM32F1xx_HAL_Driver/Src/stm32f1xx_hal_tim.c ****     return HAL_ERROR;
 2432              		.loc 1 1075 12 is_stmt 1
 2433 0128 0123     		movs	r3, #1
ARM GAS  /tmp/ccW22bxd.s 			page 62


 2434 012a FAE0     		b	.L151
 2435              	.L162:
1076:Drivers/STM32F1xx_HAL_Driver/Src/stm32f1xx_hal_tim.c ****   }
1077:Drivers/STM32F1xx_HAL_Driver/Src/stm32f1xx_hal_tim.c **** 
1078:Drivers/STM32F1xx_HAL_Driver/Src/stm32f1xx_hal_tim.c ****   switch (Channel)
 2436              		.loc 1 1078 3
 2437 012c BB68     		ldr	r3, [r7, #8]
 2438 012e 0C2B     		cmp	r3, #12
 2439 0130 00F2AE80 		bhi	.L167
 2440 0134 01A2     		adr	r2, .L169
 2441 0136 52F823F0 		ldr	pc, [r2, r3, lsl #2]
 2442 013a 00BF     		.p2align 2
 2443              	.L169:
 2444 013c 71010000 		.word	.L172+1
 2445 0140 91020000 		.word	.L167+1
 2446 0144 91020000 		.word	.L167+1
 2447 0148 91020000 		.word	.L167+1
 2448 014c B9010000 		.word	.L171+1
 2449 0150 91020000 		.word	.L167+1
 2450 0154 91020000 		.word	.L167+1
 2451 0158 91020000 		.word	.L167+1
 2452 015c 01020000 		.word	.L170+1
 2453 0160 91020000 		.word	.L167+1
 2454 0164 91020000 		.word	.L167+1
 2455 0168 91020000 		.word	.L167+1
 2456 016c 49020000 		.word	.L168+1
 2457              		.p2align 1
 2458              	.L172:
1079:Drivers/STM32F1xx_HAL_Driver/Src/stm32f1xx_hal_tim.c ****   {
1080:Drivers/STM32F1xx_HAL_Driver/Src/stm32f1xx_hal_tim.c ****     case TIM_CHANNEL_1:
1081:Drivers/STM32F1xx_HAL_Driver/Src/stm32f1xx_hal_tim.c ****     {
1082:Drivers/STM32F1xx_HAL_Driver/Src/stm32f1xx_hal_tim.c ****       /* Set the DMA compare callbacks */
1083:Drivers/STM32F1xx_HAL_Driver/Src/stm32f1xx_hal_tim.c ****       htim->hdma[TIM_DMA_ID_CC1]->XferCpltCallback = TIM_DMADelayPulseCplt;
 2459              		.loc 1 1083 17
 2460 0170 FB68     		ldr	r3, [r7, #12]
 2461 0172 5B6A     		ldr	r3, [r3, #36]
 2462              		.loc 1 1083 52
 2463 0174 6D4A     		ldr	r2, .L183
 2464 0176 9A62     		str	r2, [r3, #40]
1084:Drivers/STM32F1xx_HAL_Driver/Src/stm32f1xx_hal_tim.c ****       htim->hdma[TIM_DMA_ID_CC1]->XferHalfCpltCallback = TIM_DMADelayPulseHalfCplt;
 2465              		.loc 1 1084 17
 2466 0178 FB68     		ldr	r3, [r7, #12]
 2467 017a 5B6A     		ldr	r3, [r3, #36]
 2468              		.loc 1 1084 56
 2469 017c 6C4A     		ldr	r2, .L183+4
 2470 017e DA62     		str	r2, [r3, #44]
1085:Drivers/STM32F1xx_HAL_Driver/Src/stm32f1xx_hal_tim.c **** 
1086:Drivers/STM32F1xx_HAL_Driver/Src/stm32f1xx_hal_tim.c ****       /* Set the DMA error callback */
1087:Drivers/STM32F1xx_HAL_Driver/Src/stm32f1xx_hal_tim.c ****       htim->hdma[TIM_DMA_ID_CC1]->XferErrorCallback = TIM_DMAError ;
 2471              		.loc 1 1087 17
 2472 0180 FB68     		ldr	r3, [r7, #12]
 2473 0182 5B6A     		ldr	r3, [r3, #36]
 2474              		.loc 1 1087 53
 2475 0184 6B4A     		ldr	r2, .L183+8
 2476 0186 1A63     		str	r2, [r3, #48]
1088:Drivers/STM32F1xx_HAL_Driver/Src/stm32f1xx_hal_tim.c **** 
1089:Drivers/STM32F1xx_HAL_Driver/Src/stm32f1xx_hal_tim.c ****       /* Enable the DMA channel */
ARM GAS  /tmp/ccW22bxd.s 			page 63


1090:Drivers/STM32F1xx_HAL_Driver/Src/stm32f1xx_hal_tim.c ****       if (HAL_DMA_Start_IT(htim->hdma[TIM_DMA_ID_CC1], (uint32_t)pData, (uint32_t)&htim->Instance->
 2477              		.loc 1 1090 11
 2478 0188 FB68     		ldr	r3, [r7, #12]
 2479 018a 586A     		ldr	r0, [r3, #36]
 2480 018c 7968     		ldr	r1, [r7, #4]
 2481              		.loc 1 1090 88
 2482 018e FB68     		ldr	r3, [r7, #12]
 2483 0190 1B68     		ldr	r3, [r3]
 2484              		.loc 1 1090 83
 2485 0192 3433     		adds	r3, r3, #52
 2486              		.loc 1 1090 11
 2487 0194 1A46     		mov	r2, r3
 2488 0196 7B88     		ldrh	r3, [r7, #2]
 2489 0198 FFF7FEFF 		bl	HAL_DMA_Start_IT
 2490 019c 0346     		mov	r3, r0
 2491              		.loc 1 1090 10
 2492 019e 002B     		cmp	r3, #0
 2493 01a0 01D0     		beq	.L173
1091:Drivers/STM32F1xx_HAL_Driver/Src/stm32f1xx_hal_tim.c ****                            Length) != HAL_OK)
1092:Drivers/STM32F1xx_HAL_Driver/Src/stm32f1xx_hal_tim.c ****       {
1093:Drivers/STM32F1xx_HAL_Driver/Src/stm32f1xx_hal_tim.c ****         /* Return error status */
1094:Drivers/STM32F1xx_HAL_Driver/Src/stm32f1xx_hal_tim.c ****         return HAL_ERROR;
 2494              		.loc 1 1094 16
 2495 01a2 0123     		movs	r3, #1
 2496 01a4 BDE0     		b	.L151
 2497              	.L173:
1095:Drivers/STM32F1xx_HAL_Driver/Src/stm32f1xx_hal_tim.c ****       }
1096:Drivers/STM32F1xx_HAL_Driver/Src/stm32f1xx_hal_tim.c **** 
1097:Drivers/STM32F1xx_HAL_Driver/Src/stm32f1xx_hal_tim.c ****       /* Enable the TIM Capture/Compare 1 DMA request */
1098:Drivers/STM32F1xx_HAL_Driver/Src/stm32f1xx_hal_tim.c ****       __HAL_TIM_ENABLE_DMA(htim, TIM_DMA_CC1);
 2498              		.loc 1 1098 7
 2499 01a6 FB68     		ldr	r3, [r7, #12]
 2500 01a8 1B68     		ldr	r3, [r3]
 2501 01aa DA68     		ldr	r2, [r3, #12]
 2502 01ac FB68     		ldr	r3, [r7, #12]
 2503 01ae 1B68     		ldr	r3, [r3]
 2504 01b0 42F40072 		orr	r2, r2, #512
 2505 01b4 DA60     		str	r2, [r3, #12]
1099:Drivers/STM32F1xx_HAL_Driver/Src/stm32f1xx_hal_tim.c ****       break;
 2506              		.loc 1 1099 7
 2507 01b6 6EE0     		b	.L174
 2508              	.L171:
1100:Drivers/STM32F1xx_HAL_Driver/Src/stm32f1xx_hal_tim.c ****     }
1101:Drivers/STM32F1xx_HAL_Driver/Src/stm32f1xx_hal_tim.c **** 
1102:Drivers/STM32F1xx_HAL_Driver/Src/stm32f1xx_hal_tim.c ****     case TIM_CHANNEL_2:
1103:Drivers/STM32F1xx_HAL_Driver/Src/stm32f1xx_hal_tim.c ****     {
1104:Drivers/STM32F1xx_HAL_Driver/Src/stm32f1xx_hal_tim.c ****       /* Set the DMA compare callbacks */
1105:Drivers/STM32F1xx_HAL_Driver/Src/stm32f1xx_hal_tim.c ****       htim->hdma[TIM_DMA_ID_CC2]->XferCpltCallback = TIM_DMADelayPulseCplt;
 2509              		.loc 1 1105 17
 2510 01b8 FB68     		ldr	r3, [r7, #12]
 2511 01ba 9B6A     		ldr	r3, [r3, #40]
 2512              		.loc 1 1105 52
 2513 01bc 5B4A     		ldr	r2, .L183
 2514 01be 9A62     		str	r2, [r3, #40]
1106:Drivers/STM32F1xx_HAL_Driver/Src/stm32f1xx_hal_tim.c ****       htim->hdma[TIM_DMA_ID_CC2]->XferHalfCpltCallback = TIM_DMADelayPulseHalfCplt;
 2515              		.loc 1 1106 17
 2516 01c0 FB68     		ldr	r3, [r7, #12]
ARM GAS  /tmp/ccW22bxd.s 			page 64


 2517 01c2 9B6A     		ldr	r3, [r3, #40]
 2518              		.loc 1 1106 56
 2519 01c4 5A4A     		ldr	r2, .L183+4
 2520 01c6 DA62     		str	r2, [r3, #44]
1107:Drivers/STM32F1xx_HAL_Driver/Src/stm32f1xx_hal_tim.c **** 
1108:Drivers/STM32F1xx_HAL_Driver/Src/stm32f1xx_hal_tim.c ****       /* Set the DMA error callback */
1109:Drivers/STM32F1xx_HAL_Driver/Src/stm32f1xx_hal_tim.c ****       htim->hdma[TIM_DMA_ID_CC2]->XferErrorCallback = TIM_DMAError ;
 2521              		.loc 1 1109 17
 2522 01c8 FB68     		ldr	r3, [r7, #12]
 2523 01ca 9B6A     		ldr	r3, [r3, #40]
 2524              		.loc 1 1109 53
 2525 01cc 594A     		ldr	r2, .L183+8
 2526 01ce 1A63     		str	r2, [r3, #48]
1110:Drivers/STM32F1xx_HAL_Driver/Src/stm32f1xx_hal_tim.c **** 
1111:Drivers/STM32F1xx_HAL_Driver/Src/stm32f1xx_hal_tim.c ****       /* Enable the DMA channel */
1112:Drivers/STM32F1xx_HAL_Driver/Src/stm32f1xx_hal_tim.c ****       if (HAL_DMA_Start_IT(htim->hdma[TIM_DMA_ID_CC2], (uint32_t)pData, (uint32_t)&htim->Instance->
 2527              		.loc 1 1112 11
 2528 01d0 FB68     		ldr	r3, [r7, #12]
 2529 01d2 986A     		ldr	r0, [r3, #40]
 2530 01d4 7968     		ldr	r1, [r7, #4]
 2531              		.loc 1 1112 88
 2532 01d6 FB68     		ldr	r3, [r7, #12]
 2533 01d8 1B68     		ldr	r3, [r3]
 2534              		.loc 1 1112 83
 2535 01da 3833     		adds	r3, r3, #56
 2536              		.loc 1 1112 11
 2537 01dc 1A46     		mov	r2, r3
 2538 01de 7B88     		ldrh	r3, [r7, #2]
 2539 01e0 FFF7FEFF 		bl	HAL_DMA_Start_IT
 2540 01e4 0346     		mov	r3, r0
 2541              		.loc 1 1112 10
 2542 01e6 002B     		cmp	r3, #0
 2543 01e8 01D0     		beq	.L175
1113:Drivers/STM32F1xx_HAL_Driver/Src/stm32f1xx_hal_tim.c ****                            Length) != HAL_OK)
1114:Drivers/STM32F1xx_HAL_Driver/Src/stm32f1xx_hal_tim.c ****       {
1115:Drivers/STM32F1xx_HAL_Driver/Src/stm32f1xx_hal_tim.c ****         /* Return error status */
1116:Drivers/STM32F1xx_HAL_Driver/Src/stm32f1xx_hal_tim.c ****         return HAL_ERROR;
 2544              		.loc 1 1116 16
 2545 01ea 0123     		movs	r3, #1
 2546 01ec 99E0     		b	.L151
 2547              	.L175:
1117:Drivers/STM32F1xx_HAL_Driver/Src/stm32f1xx_hal_tim.c ****       }
1118:Drivers/STM32F1xx_HAL_Driver/Src/stm32f1xx_hal_tim.c **** 
1119:Drivers/STM32F1xx_HAL_Driver/Src/stm32f1xx_hal_tim.c ****       /* Enable the TIM Capture/Compare 2 DMA request */
1120:Drivers/STM32F1xx_HAL_Driver/Src/stm32f1xx_hal_tim.c ****       __HAL_TIM_ENABLE_DMA(htim, TIM_DMA_CC2);
 2548              		.loc 1 1120 7
 2549 01ee FB68     		ldr	r3, [r7, #12]
 2550 01f0 1B68     		ldr	r3, [r3]
 2551 01f2 DA68     		ldr	r2, [r3, #12]
 2552 01f4 FB68     		ldr	r3, [r7, #12]
 2553 01f6 1B68     		ldr	r3, [r3]
 2554 01f8 42F48062 		orr	r2, r2, #1024
 2555 01fc DA60     		str	r2, [r3, #12]
1121:Drivers/STM32F1xx_HAL_Driver/Src/stm32f1xx_hal_tim.c ****       break;
 2556              		.loc 1 1121 7
 2557 01fe 4AE0     		b	.L174
 2558              	.L170:
ARM GAS  /tmp/ccW22bxd.s 			page 65


1122:Drivers/STM32F1xx_HAL_Driver/Src/stm32f1xx_hal_tim.c ****     }
1123:Drivers/STM32F1xx_HAL_Driver/Src/stm32f1xx_hal_tim.c **** 
1124:Drivers/STM32F1xx_HAL_Driver/Src/stm32f1xx_hal_tim.c ****     case TIM_CHANNEL_3:
1125:Drivers/STM32F1xx_HAL_Driver/Src/stm32f1xx_hal_tim.c ****     {
1126:Drivers/STM32F1xx_HAL_Driver/Src/stm32f1xx_hal_tim.c ****       /* Set the DMA compare callbacks */
1127:Drivers/STM32F1xx_HAL_Driver/Src/stm32f1xx_hal_tim.c ****       htim->hdma[TIM_DMA_ID_CC3]->XferCpltCallback = TIM_DMADelayPulseCplt;
 2559              		.loc 1 1127 17
 2560 0200 FB68     		ldr	r3, [r7, #12]
 2561 0202 DB6A     		ldr	r3, [r3, #44]
 2562              		.loc 1 1127 52
 2563 0204 494A     		ldr	r2, .L183
 2564 0206 9A62     		str	r2, [r3, #40]
1128:Drivers/STM32F1xx_HAL_Driver/Src/stm32f1xx_hal_tim.c ****       htim->hdma[TIM_DMA_ID_CC3]->XferHalfCpltCallback = TIM_DMADelayPulseHalfCplt;
 2565              		.loc 1 1128 17
 2566 0208 FB68     		ldr	r3, [r7, #12]
 2567 020a DB6A     		ldr	r3, [r3, #44]
 2568              		.loc 1 1128 56
 2569 020c 484A     		ldr	r2, .L183+4
 2570 020e DA62     		str	r2, [r3, #44]
1129:Drivers/STM32F1xx_HAL_Driver/Src/stm32f1xx_hal_tim.c **** 
1130:Drivers/STM32F1xx_HAL_Driver/Src/stm32f1xx_hal_tim.c ****       /* Set the DMA error callback */
1131:Drivers/STM32F1xx_HAL_Driver/Src/stm32f1xx_hal_tim.c ****       htim->hdma[TIM_DMA_ID_CC3]->XferErrorCallback = TIM_DMAError ;
 2571              		.loc 1 1131 17
 2572 0210 FB68     		ldr	r3, [r7, #12]
 2573 0212 DB6A     		ldr	r3, [r3, #44]
 2574              		.loc 1 1131 53
 2575 0214 474A     		ldr	r2, .L183+8
 2576 0216 1A63     		str	r2, [r3, #48]
1132:Drivers/STM32F1xx_HAL_Driver/Src/stm32f1xx_hal_tim.c **** 
1133:Drivers/STM32F1xx_HAL_Driver/Src/stm32f1xx_hal_tim.c ****       /* Enable the DMA channel */
1134:Drivers/STM32F1xx_HAL_Driver/Src/stm32f1xx_hal_tim.c ****       if (HAL_DMA_Start_IT(htim->hdma[TIM_DMA_ID_CC3], (uint32_t)pData, (uint32_t)&htim->Instance->
 2577              		.loc 1 1134 11
 2578 0218 FB68     		ldr	r3, [r7, #12]
 2579 021a D86A     		ldr	r0, [r3, #44]
 2580 021c 7968     		ldr	r1, [r7, #4]
 2581              		.loc 1 1134 88
 2582 021e FB68     		ldr	r3, [r7, #12]
 2583 0220 1B68     		ldr	r3, [r3]
 2584              		.loc 1 1134 83
 2585 0222 3C33     		adds	r3, r3, #60
 2586              		.loc 1 1134 11
 2587 0224 1A46     		mov	r2, r3
 2588 0226 7B88     		ldrh	r3, [r7, #2]
 2589 0228 FFF7FEFF 		bl	HAL_DMA_Start_IT
 2590 022c 0346     		mov	r3, r0
 2591              		.loc 1 1134 10
 2592 022e 002B     		cmp	r3, #0
 2593 0230 01D0     		beq	.L176
1135:Drivers/STM32F1xx_HAL_Driver/Src/stm32f1xx_hal_tim.c ****                            Length) != HAL_OK)
1136:Drivers/STM32F1xx_HAL_Driver/Src/stm32f1xx_hal_tim.c ****       {
1137:Drivers/STM32F1xx_HAL_Driver/Src/stm32f1xx_hal_tim.c ****         /* Return error status */
1138:Drivers/STM32F1xx_HAL_Driver/Src/stm32f1xx_hal_tim.c ****         return HAL_ERROR;
 2594              		.loc 1 1138 16
 2595 0232 0123     		movs	r3, #1
 2596 0234 75E0     		b	.L151
 2597              	.L176:
1139:Drivers/STM32F1xx_HAL_Driver/Src/stm32f1xx_hal_tim.c ****       }
ARM GAS  /tmp/ccW22bxd.s 			page 66


1140:Drivers/STM32F1xx_HAL_Driver/Src/stm32f1xx_hal_tim.c ****       /* Enable the TIM Capture/Compare 3 DMA request */
1141:Drivers/STM32F1xx_HAL_Driver/Src/stm32f1xx_hal_tim.c ****       __HAL_TIM_ENABLE_DMA(htim, TIM_DMA_CC3);
 2598              		.loc 1 1141 7
 2599 0236 FB68     		ldr	r3, [r7, #12]
 2600 0238 1B68     		ldr	r3, [r3]
 2601 023a DA68     		ldr	r2, [r3, #12]
 2602 023c FB68     		ldr	r3, [r7, #12]
 2603 023e 1B68     		ldr	r3, [r3]
 2604 0240 42F40062 		orr	r2, r2, #2048
 2605 0244 DA60     		str	r2, [r3, #12]
1142:Drivers/STM32F1xx_HAL_Driver/Src/stm32f1xx_hal_tim.c ****       break;
 2606              		.loc 1 1142 7
 2607 0246 26E0     		b	.L174
 2608              	.L168:
1143:Drivers/STM32F1xx_HAL_Driver/Src/stm32f1xx_hal_tim.c ****     }
1144:Drivers/STM32F1xx_HAL_Driver/Src/stm32f1xx_hal_tim.c **** 
1145:Drivers/STM32F1xx_HAL_Driver/Src/stm32f1xx_hal_tim.c ****     case TIM_CHANNEL_4:
1146:Drivers/STM32F1xx_HAL_Driver/Src/stm32f1xx_hal_tim.c ****     {
1147:Drivers/STM32F1xx_HAL_Driver/Src/stm32f1xx_hal_tim.c ****       /* Set the DMA compare callbacks */
1148:Drivers/STM32F1xx_HAL_Driver/Src/stm32f1xx_hal_tim.c ****       htim->hdma[TIM_DMA_ID_CC4]->XferCpltCallback = TIM_DMADelayPulseCplt;
 2609              		.loc 1 1148 17
 2610 0248 FB68     		ldr	r3, [r7, #12]
 2611 024a 1B6B     		ldr	r3, [r3, #48]
 2612              		.loc 1 1148 52
 2613 024c 374A     		ldr	r2, .L183
 2614 024e 9A62     		str	r2, [r3, #40]
1149:Drivers/STM32F1xx_HAL_Driver/Src/stm32f1xx_hal_tim.c ****       htim->hdma[TIM_DMA_ID_CC4]->XferHalfCpltCallback = TIM_DMADelayPulseHalfCplt;
 2615              		.loc 1 1149 17
 2616 0250 FB68     		ldr	r3, [r7, #12]
 2617 0252 1B6B     		ldr	r3, [r3, #48]
 2618              		.loc 1 1149 56
 2619 0254 364A     		ldr	r2, .L183+4
 2620 0256 DA62     		str	r2, [r3, #44]
1150:Drivers/STM32F1xx_HAL_Driver/Src/stm32f1xx_hal_tim.c **** 
1151:Drivers/STM32F1xx_HAL_Driver/Src/stm32f1xx_hal_tim.c ****       /* Set the DMA error callback */
1152:Drivers/STM32F1xx_HAL_Driver/Src/stm32f1xx_hal_tim.c ****       htim->hdma[TIM_DMA_ID_CC4]->XferErrorCallback = TIM_DMAError ;
 2621              		.loc 1 1152 17
 2622 0258 FB68     		ldr	r3, [r7, #12]
 2623 025a 1B6B     		ldr	r3, [r3, #48]
 2624              		.loc 1 1152 53
 2625 025c 354A     		ldr	r2, .L183+8
 2626 025e 1A63     		str	r2, [r3, #48]
1153:Drivers/STM32F1xx_HAL_Driver/Src/stm32f1xx_hal_tim.c **** 
1154:Drivers/STM32F1xx_HAL_Driver/Src/stm32f1xx_hal_tim.c ****       /* Enable the DMA channel */
1155:Drivers/STM32F1xx_HAL_Driver/Src/stm32f1xx_hal_tim.c ****       if (HAL_DMA_Start_IT(htim->hdma[TIM_DMA_ID_CC4], (uint32_t)pData, (uint32_t)&htim->Instance->
 2627              		.loc 1 1155 11
 2628 0260 FB68     		ldr	r3, [r7, #12]
 2629 0262 186B     		ldr	r0, [r3, #48]
 2630 0264 7968     		ldr	r1, [r7, #4]
 2631              		.loc 1 1155 88
 2632 0266 FB68     		ldr	r3, [r7, #12]
 2633 0268 1B68     		ldr	r3, [r3]
 2634              		.loc 1 1155 83
 2635 026a 4033     		adds	r3, r3, #64
 2636              		.loc 1 1155 11
 2637 026c 1A46     		mov	r2, r3
 2638 026e 7B88     		ldrh	r3, [r7, #2]
ARM GAS  /tmp/ccW22bxd.s 			page 67


 2639 0270 FFF7FEFF 		bl	HAL_DMA_Start_IT
 2640 0274 0346     		mov	r3, r0
 2641              		.loc 1 1155 10
 2642 0276 002B     		cmp	r3, #0
 2643 0278 01D0     		beq	.L177
1156:Drivers/STM32F1xx_HAL_Driver/Src/stm32f1xx_hal_tim.c ****                            Length) != HAL_OK)
1157:Drivers/STM32F1xx_HAL_Driver/Src/stm32f1xx_hal_tim.c ****       {
1158:Drivers/STM32F1xx_HAL_Driver/Src/stm32f1xx_hal_tim.c ****         /* Return error status */
1159:Drivers/STM32F1xx_HAL_Driver/Src/stm32f1xx_hal_tim.c ****         return HAL_ERROR;
 2644              		.loc 1 1159 16
 2645 027a 0123     		movs	r3, #1
 2646 027c 51E0     		b	.L151
 2647              	.L177:
1160:Drivers/STM32F1xx_HAL_Driver/Src/stm32f1xx_hal_tim.c ****       }
1161:Drivers/STM32F1xx_HAL_Driver/Src/stm32f1xx_hal_tim.c ****       /* Enable the TIM Capture/Compare 4 DMA request */
1162:Drivers/STM32F1xx_HAL_Driver/Src/stm32f1xx_hal_tim.c ****       __HAL_TIM_ENABLE_DMA(htim, TIM_DMA_CC4);
 2648              		.loc 1 1162 7
 2649 027e FB68     		ldr	r3, [r7, #12]
 2650 0280 1B68     		ldr	r3, [r3]
 2651 0282 DA68     		ldr	r2, [r3, #12]
 2652 0284 FB68     		ldr	r3, [r7, #12]
 2653 0286 1B68     		ldr	r3, [r3]
 2654 0288 42F48052 		orr	r2, r2, #4096
 2655 028c DA60     		str	r2, [r3, #12]
1163:Drivers/STM32F1xx_HAL_Driver/Src/stm32f1xx_hal_tim.c ****       break;
 2656              		.loc 1 1163 7
 2657 028e 02E0     		b	.L174
 2658              	.L167:
1164:Drivers/STM32F1xx_HAL_Driver/Src/stm32f1xx_hal_tim.c ****     }
1165:Drivers/STM32F1xx_HAL_Driver/Src/stm32f1xx_hal_tim.c **** 
1166:Drivers/STM32F1xx_HAL_Driver/Src/stm32f1xx_hal_tim.c ****     default:
1167:Drivers/STM32F1xx_HAL_Driver/Src/stm32f1xx_hal_tim.c ****       status = HAL_ERROR;
 2659              		.loc 1 1167 14
 2660 0290 0123     		movs	r3, #1
 2661 0292 FB75     		strb	r3, [r7, #23]
1168:Drivers/STM32F1xx_HAL_Driver/Src/stm32f1xx_hal_tim.c ****       break;
 2662              		.loc 1 1168 7
 2663 0294 00BF     		nop
 2664              	.L174:
1169:Drivers/STM32F1xx_HAL_Driver/Src/stm32f1xx_hal_tim.c ****   }
1170:Drivers/STM32F1xx_HAL_Driver/Src/stm32f1xx_hal_tim.c **** 
1171:Drivers/STM32F1xx_HAL_Driver/Src/stm32f1xx_hal_tim.c ****   if (status == HAL_OK)
 2665              		.loc 1 1171 6
 2666 0296 FB7D     		ldrb	r3, [r7, #23]	@ zero_extendqisi2
 2667 0298 002B     		cmp	r3, #0
 2668 029a 41D1     		bne	.L178
1172:Drivers/STM32F1xx_HAL_Driver/Src/stm32f1xx_hal_tim.c ****   {
1173:Drivers/STM32F1xx_HAL_Driver/Src/stm32f1xx_hal_tim.c ****     /* Enable the Output compare channel */
1174:Drivers/STM32F1xx_HAL_Driver/Src/stm32f1xx_hal_tim.c ****     TIM_CCxChannelCmd(htim->Instance, Channel, TIM_CCx_ENABLE);
 2669              		.loc 1 1174 5
 2670 029c FB68     		ldr	r3, [r7, #12]
 2671 029e 1B68     		ldr	r3, [r3]
 2672 02a0 0122     		movs	r2, #1
 2673 02a2 B968     		ldr	r1, [r7, #8]
 2674 02a4 1846     		mov	r0, r3
 2675 02a6 FFF7FEFF 		bl	TIM_CCxChannelCmd
1175:Drivers/STM32F1xx_HAL_Driver/Src/stm32f1xx_hal_tim.c **** 
ARM GAS  /tmp/ccW22bxd.s 			page 68


1176:Drivers/STM32F1xx_HAL_Driver/Src/stm32f1xx_hal_tim.c ****     if (IS_TIM_BREAK_INSTANCE(htim->Instance) != RESET)
 2676              		.loc 1 1176 9
 2677 02aa FB68     		ldr	r3, [r7, #12]
 2678 02ac 1B68     		ldr	r3, [r3]
 2679              		.loc 1 1176 8
 2680 02ae 224A     		ldr	r2, .L183+12
 2681 02b0 9342     		cmp	r3, r2
 2682 02b2 07D1     		bne	.L179
1177:Drivers/STM32F1xx_HAL_Driver/Src/stm32f1xx_hal_tim.c ****     {
1178:Drivers/STM32F1xx_HAL_Driver/Src/stm32f1xx_hal_tim.c ****       /* Enable the main output */
1179:Drivers/STM32F1xx_HAL_Driver/Src/stm32f1xx_hal_tim.c ****       __HAL_TIM_MOE_ENABLE(htim);
 2683              		.loc 1 1179 7
 2684 02b4 FB68     		ldr	r3, [r7, #12]
 2685 02b6 1B68     		ldr	r3, [r3]
 2686 02b8 5A6C     		ldr	r2, [r3, #68]
 2687 02ba FB68     		ldr	r3, [r7, #12]
 2688 02bc 1B68     		ldr	r3, [r3]
 2689 02be 42F40042 		orr	r2, r2, #32768
 2690 02c2 5A64     		str	r2, [r3, #68]
 2691              	.L179:
1180:Drivers/STM32F1xx_HAL_Driver/Src/stm32f1xx_hal_tim.c ****     }
1181:Drivers/STM32F1xx_HAL_Driver/Src/stm32f1xx_hal_tim.c **** 
1182:Drivers/STM32F1xx_HAL_Driver/Src/stm32f1xx_hal_tim.c ****     /* Enable the Peripheral, except in trigger mode where enable is automatically done with trigge
1183:Drivers/STM32F1xx_HAL_Driver/Src/stm32f1xx_hal_tim.c ****     if (IS_TIM_SLAVE_INSTANCE(htim->Instance))
 2692              		.loc 1 1183 9
 2693 02c4 FB68     		ldr	r3, [r7, #12]
 2694 02c6 1B68     		ldr	r3, [r3]
 2695              		.loc 1 1183 8
 2696 02c8 1B4A     		ldr	r2, .L183+12
 2697 02ca 9342     		cmp	r3, r2
 2698 02cc 0ED0     		beq	.L180
 2699              		.loc 1 1183 9 discriminator 1
 2700 02ce FB68     		ldr	r3, [r7, #12]
 2701 02d0 1B68     		ldr	r3, [r3]
 2702 02d2 B3F1804F 		cmp	r3, #1073741824
 2703 02d6 09D0     		beq	.L180
 2704              		.loc 1 1183 9 is_stmt 0 discriminator 2
 2705 02d8 FB68     		ldr	r3, [r7, #12]
 2706 02da 1B68     		ldr	r3, [r3]
 2707 02dc 174A     		ldr	r2, .L183+16
 2708 02de 9342     		cmp	r3, r2
 2709 02e0 04D0     		beq	.L180
 2710              		.loc 1 1183 9 discriminator 3
 2711 02e2 FB68     		ldr	r3, [r7, #12]
 2712 02e4 1B68     		ldr	r3, [r3]
 2713 02e6 164A     		ldr	r2, .L183+20
 2714 02e8 9342     		cmp	r3, r2
 2715 02ea 11D1     		bne	.L181
 2716              	.L180:
1184:Drivers/STM32F1xx_HAL_Driver/Src/stm32f1xx_hal_tim.c ****     {
1185:Drivers/STM32F1xx_HAL_Driver/Src/stm32f1xx_hal_tim.c ****       tmpsmcr = htim->Instance->SMCR & TIM_SMCR_SMS;
 2717              		.loc 1 1185 21 is_stmt 1
 2718 02ec FB68     		ldr	r3, [r7, #12]
 2719 02ee 1B68     		ldr	r3, [r3]
 2720              		.loc 1 1185 31
 2721 02f0 9B68     		ldr	r3, [r3, #8]
 2722              		.loc 1 1185 15
ARM GAS  /tmp/ccW22bxd.s 			page 69


 2723 02f2 03F00703 		and	r3, r3, #7
 2724 02f6 3B61     		str	r3, [r7, #16]
1186:Drivers/STM32F1xx_HAL_Driver/Src/stm32f1xx_hal_tim.c ****       if (!IS_TIM_SLAVEMODE_TRIGGER_ENABLED(tmpsmcr))
 2725              		.loc 1 1186 10
 2726 02f8 3B69     		ldr	r3, [r7, #16]
 2727 02fa 062B     		cmp	r3, #6
 2728 02fc 10D0     		beq	.L178
1187:Drivers/STM32F1xx_HAL_Driver/Src/stm32f1xx_hal_tim.c ****       {
1188:Drivers/STM32F1xx_HAL_Driver/Src/stm32f1xx_hal_tim.c ****         __HAL_TIM_ENABLE(htim);
 2729              		.loc 1 1188 9
 2730 02fe FB68     		ldr	r3, [r7, #12]
 2731 0300 1B68     		ldr	r3, [r3]
 2732 0302 1A68     		ldr	r2, [r3]
 2733 0304 FB68     		ldr	r3, [r7, #12]
 2734 0306 1B68     		ldr	r3, [r3]
 2735 0308 42F00102 		orr	r2, r2, #1
 2736 030c 1A60     		str	r2, [r3]
1186:Drivers/STM32F1xx_HAL_Driver/Src/stm32f1xx_hal_tim.c ****       if (!IS_TIM_SLAVEMODE_TRIGGER_ENABLED(tmpsmcr))
 2737              		.loc 1 1186 10
 2738 030e 07E0     		b	.L178
 2739              	.L181:
1189:Drivers/STM32F1xx_HAL_Driver/Src/stm32f1xx_hal_tim.c ****       }
1190:Drivers/STM32F1xx_HAL_Driver/Src/stm32f1xx_hal_tim.c ****     }
1191:Drivers/STM32F1xx_HAL_Driver/Src/stm32f1xx_hal_tim.c ****     else
1192:Drivers/STM32F1xx_HAL_Driver/Src/stm32f1xx_hal_tim.c ****     {
1193:Drivers/STM32F1xx_HAL_Driver/Src/stm32f1xx_hal_tim.c ****       __HAL_TIM_ENABLE(htim);
 2740              		.loc 1 1193 7
 2741 0310 FB68     		ldr	r3, [r7, #12]
 2742 0312 1B68     		ldr	r3, [r3]
 2743 0314 1A68     		ldr	r2, [r3]
 2744 0316 FB68     		ldr	r3, [r7, #12]
 2745 0318 1B68     		ldr	r3, [r3]
 2746 031a 42F00102 		orr	r2, r2, #1
 2747 031e 1A60     		str	r2, [r3]
 2748              	.L178:
1194:Drivers/STM32F1xx_HAL_Driver/Src/stm32f1xx_hal_tim.c ****     }
1195:Drivers/STM32F1xx_HAL_Driver/Src/stm32f1xx_hal_tim.c ****   }
1196:Drivers/STM32F1xx_HAL_Driver/Src/stm32f1xx_hal_tim.c **** 
1197:Drivers/STM32F1xx_HAL_Driver/Src/stm32f1xx_hal_tim.c ****   /* Return function status */
1198:Drivers/STM32F1xx_HAL_Driver/Src/stm32f1xx_hal_tim.c ****   return status;
 2749              		.loc 1 1198 10
 2750 0320 FB7D     		ldrb	r3, [r7, #23]	@ zero_extendqisi2
 2751              	.L151:
1199:Drivers/STM32F1xx_HAL_Driver/Src/stm32f1xx_hal_tim.c **** }
 2752              		.loc 1 1199 1
 2753 0322 1846     		mov	r0, r3
 2754 0324 1837     		adds	r7, r7, #24
 2755              	.LCFI101:
 2756              		.cfi_def_cfa_offset 8
 2757 0326 BD46     		mov	sp, r7
 2758              	.LCFI102:
 2759              		.cfi_def_cfa_register 13
 2760              		@ sp needed
 2761 0328 80BD     		pop	{r7, pc}
 2762              	.L184:
 2763 032a 00BF     		.align	2
 2764              	.L183:
ARM GAS  /tmp/ccW22bxd.s 			page 70


 2765 032c 00000000 		.word	TIM_DMADelayPulseCplt
 2766 0330 00000000 		.word	TIM_DMADelayPulseHalfCplt
 2767 0334 00000000 		.word	TIM_DMAError
 2768 0338 002C0140 		.word	1073818624
 2769 033c 00040040 		.word	1073742848
 2770 0340 00080040 		.word	1073743872
 2771              		.cfi_endproc
 2772              	.LFE83:
 2774              		.section	.text.HAL_TIM_OC_Stop_DMA,"ax",%progbits
 2775              		.align	1
 2776              		.global	HAL_TIM_OC_Stop_DMA
 2777              		.syntax unified
 2778              		.thumb
 2779              		.thumb_func
 2781              	HAL_TIM_OC_Stop_DMA:
 2782              	.LFB84:
1200:Drivers/STM32F1xx_HAL_Driver/Src/stm32f1xx_hal_tim.c **** 
1201:Drivers/STM32F1xx_HAL_Driver/Src/stm32f1xx_hal_tim.c **** /**
1202:Drivers/STM32F1xx_HAL_Driver/Src/stm32f1xx_hal_tim.c ****   * @brief  Stops the TIM Output Compare signal generation in DMA mode.
1203:Drivers/STM32F1xx_HAL_Driver/Src/stm32f1xx_hal_tim.c ****   * @param  htim TIM Output Compare handle
1204:Drivers/STM32F1xx_HAL_Driver/Src/stm32f1xx_hal_tim.c ****   * @param  Channel TIM Channel to be disabled
1205:Drivers/STM32F1xx_HAL_Driver/Src/stm32f1xx_hal_tim.c ****   *          This parameter can be one of the following values:
1206:Drivers/STM32F1xx_HAL_Driver/Src/stm32f1xx_hal_tim.c ****   *            @arg TIM_CHANNEL_1: TIM Channel 1 selected
1207:Drivers/STM32F1xx_HAL_Driver/Src/stm32f1xx_hal_tim.c ****   *            @arg TIM_CHANNEL_2: TIM Channel 2 selected
1208:Drivers/STM32F1xx_HAL_Driver/Src/stm32f1xx_hal_tim.c ****   *            @arg TIM_CHANNEL_3: TIM Channel 3 selected
1209:Drivers/STM32F1xx_HAL_Driver/Src/stm32f1xx_hal_tim.c ****   *            @arg TIM_CHANNEL_4: TIM Channel 4 selected
1210:Drivers/STM32F1xx_HAL_Driver/Src/stm32f1xx_hal_tim.c ****   * @retval HAL status
1211:Drivers/STM32F1xx_HAL_Driver/Src/stm32f1xx_hal_tim.c ****   */
1212:Drivers/STM32F1xx_HAL_Driver/Src/stm32f1xx_hal_tim.c **** HAL_StatusTypeDef HAL_TIM_OC_Stop_DMA(TIM_HandleTypeDef *htim, uint32_t Channel)
1213:Drivers/STM32F1xx_HAL_Driver/Src/stm32f1xx_hal_tim.c **** {
 2783              		.loc 1 1213 1
 2784              		.cfi_startproc
 2785              		@ args = 0, pretend = 0, frame = 16
 2786              		@ frame_needed = 1, uses_anonymous_args = 0
 2787 0000 80B5     		push	{r7, lr}
 2788              	.LCFI103:
 2789              		.cfi_def_cfa_offset 8
 2790              		.cfi_offset 7, -8
 2791              		.cfi_offset 14, -4
 2792 0002 84B0     		sub	sp, sp, #16
 2793              	.LCFI104:
 2794              		.cfi_def_cfa_offset 24
 2795 0004 00AF     		add	r7, sp, #0
 2796              	.LCFI105:
 2797              		.cfi_def_cfa_register 7
 2798 0006 7860     		str	r0, [r7, #4]
 2799 0008 3960     		str	r1, [r7]
1214:Drivers/STM32F1xx_HAL_Driver/Src/stm32f1xx_hal_tim.c ****   HAL_StatusTypeDef status = HAL_OK;
 2800              		.loc 1 1214 21
 2801 000a 0023     		movs	r3, #0
 2802 000c FB73     		strb	r3, [r7, #15]
1215:Drivers/STM32F1xx_HAL_Driver/Src/stm32f1xx_hal_tim.c **** 
1216:Drivers/STM32F1xx_HAL_Driver/Src/stm32f1xx_hal_tim.c ****   /* Check the parameters */
1217:Drivers/STM32F1xx_HAL_Driver/Src/stm32f1xx_hal_tim.c ****   assert_param(IS_TIM_CCX_INSTANCE(htim->Instance, Channel));
1218:Drivers/STM32F1xx_HAL_Driver/Src/stm32f1xx_hal_tim.c **** 
1219:Drivers/STM32F1xx_HAL_Driver/Src/stm32f1xx_hal_tim.c ****   switch (Channel)
 2803              		.loc 1 1219 3
ARM GAS  /tmp/ccW22bxd.s 			page 71


 2804 000e 3B68     		ldr	r3, [r7]
 2805 0010 0C2B     		cmp	r3, #12
 2806 0012 55D8     		bhi	.L186
 2807 0014 01A2     		adr	r2, .L188
 2808 0016 52F823F0 		ldr	pc, [r2, r3, lsl #2]
 2809 001a 00BF     		.p2align 2
 2810              	.L188:
 2811 001c 51000000 		.word	.L191+1
 2812 0020 C1000000 		.word	.L186+1
 2813 0024 C1000000 		.word	.L186+1
 2814 0028 C1000000 		.word	.L186+1
 2815 002c 6D000000 		.word	.L190+1
 2816 0030 C1000000 		.word	.L186+1
 2817 0034 C1000000 		.word	.L186+1
 2818 0038 C1000000 		.word	.L186+1
 2819 003c 89000000 		.word	.L189+1
 2820 0040 C1000000 		.word	.L186+1
 2821 0044 C1000000 		.word	.L186+1
 2822 0048 C1000000 		.word	.L186+1
 2823 004c A5000000 		.word	.L187+1
 2824              		.p2align 1
 2825              	.L191:
1220:Drivers/STM32F1xx_HAL_Driver/Src/stm32f1xx_hal_tim.c ****   {
1221:Drivers/STM32F1xx_HAL_Driver/Src/stm32f1xx_hal_tim.c ****     case TIM_CHANNEL_1:
1222:Drivers/STM32F1xx_HAL_Driver/Src/stm32f1xx_hal_tim.c ****     {
1223:Drivers/STM32F1xx_HAL_Driver/Src/stm32f1xx_hal_tim.c ****       /* Disable the TIM Capture/Compare 1 DMA request */
1224:Drivers/STM32F1xx_HAL_Driver/Src/stm32f1xx_hal_tim.c ****       __HAL_TIM_DISABLE_DMA(htim, TIM_DMA_CC1);
 2826              		.loc 1 1224 7
 2827 0050 7B68     		ldr	r3, [r7, #4]
 2828 0052 1B68     		ldr	r3, [r3]
 2829 0054 DA68     		ldr	r2, [r3, #12]
 2830 0056 7B68     		ldr	r3, [r7, #4]
 2831 0058 1B68     		ldr	r3, [r3]
 2832 005a 22F40072 		bic	r2, r2, #512
 2833 005e DA60     		str	r2, [r3, #12]
1225:Drivers/STM32F1xx_HAL_Driver/Src/stm32f1xx_hal_tim.c ****       (void)HAL_DMA_Abort_IT(htim->hdma[TIM_DMA_ID_CC1]);
 2834              		.loc 1 1225 13
 2835 0060 7B68     		ldr	r3, [r7, #4]
 2836 0062 5B6A     		ldr	r3, [r3, #36]
 2837 0064 1846     		mov	r0, r3
 2838 0066 FFF7FEFF 		bl	HAL_DMA_Abort_IT
1226:Drivers/STM32F1xx_HAL_Driver/Src/stm32f1xx_hal_tim.c ****       break;
 2839              		.loc 1 1226 7
 2840 006a 2CE0     		b	.L192
 2841              	.L190:
1227:Drivers/STM32F1xx_HAL_Driver/Src/stm32f1xx_hal_tim.c ****     }
1228:Drivers/STM32F1xx_HAL_Driver/Src/stm32f1xx_hal_tim.c **** 
1229:Drivers/STM32F1xx_HAL_Driver/Src/stm32f1xx_hal_tim.c ****     case TIM_CHANNEL_2:
1230:Drivers/STM32F1xx_HAL_Driver/Src/stm32f1xx_hal_tim.c ****     {
1231:Drivers/STM32F1xx_HAL_Driver/Src/stm32f1xx_hal_tim.c ****       /* Disable the TIM Capture/Compare 2 DMA request */
1232:Drivers/STM32F1xx_HAL_Driver/Src/stm32f1xx_hal_tim.c ****       __HAL_TIM_DISABLE_DMA(htim, TIM_DMA_CC2);
 2842              		.loc 1 1232 7
 2843 006c 7B68     		ldr	r3, [r7, #4]
 2844 006e 1B68     		ldr	r3, [r3]
 2845 0070 DA68     		ldr	r2, [r3, #12]
 2846 0072 7B68     		ldr	r3, [r7, #4]
 2847 0074 1B68     		ldr	r3, [r3]
ARM GAS  /tmp/ccW22bxd.s 			page 72


 2848 0076 22F48062 		bic	r2, r2, #1024
 2849 007a DA60     		str	r2, [r3, #12]
1233:Drivers/STM32F1xx_HAL_Driver/Src/stm32f1xx_hal_tim.c ****       (void)HAL_DMA_Abort_IT(htim->hdma[TIM_DMA_ID_CC2]);
 2850              		.loc 1 1233 13
 2851 007c 7B68     		ldr	r3, [r7, #4]
 2852 007e 9B6A     		ldr	r3, [r3, #40]
 2853 0080 1846     		mov	r0, r3
 2854 0082 FFF7FEFF 		bl	HAL_DMA_Abort_IT
1234:Drivers/STM32F1xx_HAL_Driver/Src/stm32f1xx_hal_tim.c ****       break;
 2855              		.loc 1 1234 7
 2856 0086 1EE0     		b	.L192
 2857              	.L189:
1235:Drivers/STM32F1xx_HAL_Driver/Src/stm32f1xx_hal_tim.c ****     }
1236:Drivers/STM32F1xx_HAL_Driver/Src/stm32f1xx_hal_tim.c **** 
1237:Drivers/STM32F1xx_HAL_Driver/Src/stm32f1xx_hal_tim.c ****     case TIM_CHANNEL_3:
1238:Drivers/STM32F1xx_HAL_Driver/Src/stm32f1xx_hal_tim.c ****     {
1239:Drivers/STM32F1xx_HAL_Driver/Src/stm32f1xx_hal_tim.c ****       /* Disable the TIM Capture/Compare 3 DMA request */
1240:Drivers/STM32F1xx_HAL_Driver/Src/stm32f1xx_hal_tim.c ****       __HAL_TIM_DISABLE_DMA(htim, TIM_DMA_CC3);
 2858              		.loc 1 1240 7
 2859 0088 7B68     		ldr	r3, [r7, #4]
 2860 008a 1B68     		ldr	r3, [r3]
 2861 008c DA68     		ldr	r2, [r3, #12]
 2862 008e 7B68     		ldr	r3, [r7, #4]
 2863 0090 1B68     		ldr	r3, [r3]
 2864 0092 22F40062 		bic	r2, r2, #2048
 2865 0096 DA60     		str	r2, [r3, #12]
1241:Drivers/STM32F1xx_HAL_Driver/Src/stm32f1xx_hal_tim.c ****       (void)HAL_DMA_Abort_IT(htim->hdma[TIM_DMA_ID_CC3]);
 2866              		.loc 1 1241 13
 2867 0098 7B68     		ldr	r3, [r7, #4]
 2868 009a DB6A     		ldr	r3, [r3, #44]
 2869 009c 1846     		mov	r0, r3
 2870 009e FFF7FEFF 		bl	HAL_DMA_Abort_IT
1242:Drivers/STM32F1xx_HAL_Driver/Src/stm32f1xx_hal_tim.c ****       break;
 2871              		.loc 1 1242 7
 2872 00a2 10E0     		b	.L192
 2873              	.L187:
1243:Drivers/STM32F1xx_HAL_Driver/Src/stm32f1xx_hal_tim.c ****     }
1244:Drivers/STM32F1xx_HAL_Driver/Src/stm32f1xx_hal_tim.c **** 
1245:Drivers/STM32F1xx_HAL_Driver/Src/stm32f1xx_hal_tim.c ****     case TIM_CHANNEL_4:
1246:Drivers/STM32F1xx_HAL_Driver/Src/stm32f1xx_hal_tim.c ****     {
1247:Drivers/STM32F1xx_HAL_Driver/Src/stm32f1xx_hal_tim.c ****       /* Disable the TIM Capture/Compare 4 interrupt */
1248:Drivers/STM32F1xx_HAL_Driver/Src/stm32f1xx_hal_tim.c ****       __HAL_TIM_DISABLE_DMA(htim, TIM_DMA_CC4);
 2874              		.loc 1 1248 7
 2875 00a4 7B68     		ldr	r3, [r7, #4]
 2876 00a6 1B68     		ldr	r3, [r3]
 2877 00a8 DA68     		ldr	r2, [r3, #12]
 2878 00aa 7B68     		ldr	r3, [r7, #4]
 2879 00ac 1B68     		ldr	r3, [r3]
 2880 00ae 22F48052 		bic	r2, r2, #4096
 2881 00b2 DA60     		str	r2, [r3, #12]
1249:Drivers/STM32F1xx_HAL_Driver/Src/stm32f1xx_hal_tim.c ****       (void)HAL_DMA_Abort_IT(htim->hdma[TIM_DMA_ID_CC4]);
 2882              		.loc 1 1249 13
 2883 00b4 7B68     		ldr	r3, [r7, #4]
 2884 00b6 1B6B     		ldr	r3, [r3, #48]
 2885 00b8 1846     		mov	r0, r3
 2886 00ba FFF7FEFF 		bl	HAL_DMA_Abort_IT
1250:Drivers/STM32F1xx_HAL_Driver/Src/stm32f1xx_hal_tim.c ****       break;
ARM GAS  /tmp/ccW22bxd.s 			page 73


 2887              		.loc 1 1250 7
 2888 00be 02E0     		b	.L192
 2889              	.L186:
1251:Drivers/STM32F1xx_HAL_Driver/Src/stm32f1xx_hal_tim.c ****     }
1252:Drivers/STM32F1xx_HAL_Driver/Src/stm32f1xx_hal_tim.c **** 
1253:Drivers/STM32F1xx_HAL_Driver/Src/stm32f1xx_hal_tim.c ****     default:
1254:Drivers/STM32F1xx_HAL_Driver/Src/stm32f1xx_hal_tim.c ****       status = HAL_ERROR;
 2890              		.loc 1 1254 14
 2891 00c0 0123     		movs	r3, #1
 2892 00c2 FB73     		strb	r3, [r7, #15]
1255:Drivers/STM32F1xx_HAL_Driver/Src/stm32f1xx_hal_tim.c ****       break;
 2893              		.loc 1 1255 7
 2894 00c4 00BF     		nop
 2895              	.L192:
1256:Drivers/STM32F1xx_HAL_Driver/Src/stm32f1xx_hal_tim.c ****   }
1257:Drivers/STM32F1xx_HAL_Driver/Src/stm32f1xx_hal_tim.c **** 
1258:Drivers/STM32F1xx_HAL_Driver/Src/stm32f1xx_hal_tim.c ****   if (status == HAL_OK)
 2896              		.loc 1 1258 6
 2897 00c6 FB7B     		ldrb	r3, [r7, #15]	@ zero_extendqisi2
 2898 00c8 002B     		cmp	r3, #0
 2899 00ca 57D1     		bne	.L193
1259:Drivers/STM32F1xx_HAL_Driver/Src/stm32f1xx_hal_tim.c ****   {
1260:Drivers/STM32F1xx_HAL_Driver/Src/stm32f1xx_hal_tim.c ****     /* Disable the Output compare channel */
1261:Drivers/STM32F1xx_HAL_Driver/Src/stm32f1xx_hal_tim.c ****     TIM_CCxChannelCmd(htim->Instance, Channel, TIM_CCx_DISABLE);
 2900              		.loc 1 1261 5
 2901 00cc 7B68     		ldr	r3, [r7, #4]
 2902 00ce 1B68     		ldr	r3, [r3]
 2903 00d0 0022     		movs	r2, #0
 2904 00d2 3968     		ldr	r1, [r7]
 2905 00d4 1846     		mov	r0, r3
 2906 00d6 FFF7FEFF 		bl	TIM_CCxChannelCmd
1262:Drivers/STM32F1xx_HAL_Driver/Src/stm32f1xx_hal_tim.c **** 
1263:Drivers/STM32F1xx_HAL_Driver/Src/stm32f1xx_hal_tim.c ****     if (IS_TIM_BREAK_INSTANCE(htim->Instance) != RESET)
 2907              		.loc 1 1263 9
 2908 00da 7B68     		ldr	r3, [r7, #4]
 2909 00dc 1B68     		ldr	r3, [r3]
 2910              		.loc 1 1263 8
 2911 00de 2A4A     		ldr	r2, .L202
 2912 00e0 9342     		cmp	r3, r2
 2913 00e2 17D1     		bne	.L194
1264:Drivers/STM32F1xx_HAL_Driver/Src/stm32f1xx_hal_tim.c ****     {
1265:Drivers/STM32F1xx_HAL_Driver/Src/stm32f1xx_hal_tim.c ****       /* Disable the Main Output */
1266:Drivers/STM32F1xx_HAL_Driver/Src/stm32f1xx_hal_tim.c ****       __HAL_TIM_MOE_DISABLE(htim);
 2914              		.loc 1 1266 7
 2915 00e4 7B68     		ldr	r3, [r7, #4]
 2916 00e6 1B68     		ldr	r3, [r3]
 2917 00e8 1A6A     		ldr	r2, [r3, #32]
 2918 00ea 41F21113 		movw	r3, #4369
 2919 00ee 1340     		ands	r3, r3, r2
 2920 00f0 002B     		cmp	r3, #0
 2921 00f2 0FD1     		bne	.L194
 2922              		.loc 1 1266 7 is_stmt 0 discriminator 1
 2923 00f4 7B68     		ldr	r3, [r7, #4]
 2924 00f6 1B68     		ldr	r3, [r3]
 2925 00f8 1A6A     		ldr	r2, [r3, #32]
 2926 00fa 40F24443 		movw	r3, #1092
 2927 00fe 1340     		ands	r3, r3, r2
ARM GAS  /tmp/ccW22bxd.s 			page 74


 2928 0100 002B     		cmp	r3, #0
 2929 0102 07D1     		bne	.L194
 2930              		.loc 1 1266 7 discriminator 2
 2931 0104 7B68     		ldr	r3, [r7, #4]
 2932 0106 1B68     		ldr	r3, [r3]
 2933 0108 5A6C     		ldr	r2, [r3, #68]
 2934 010a 7B68     		ldr	r3, [r7, #4]
 2935 010c 1B68     		ldr	r3, [r3]
 2936 010e 22F40042 		bic	r2, r2, #32768
 2937 0112 5A64     		str	r2, [r3, #68]
 2938              	.L194:
1267:Drivers/STM32F1xx_HAL_Driver/Src/stm32f1xx_hal_tim.c ****     }
1268:Drivers/STM32F1xx_HAL_Driver/Src/stm32f1xx_hal_tim.c **** 
1269:Drivers/STM32F1xx_HAL_Driver/Src/stm32f1xx_hal_tim.c ****     /* Disable the Peripheral */
1270:Drivers/STM32F1xx_HAL_Driver/Src/stm32f1xx_hal_tim.c ****     __HAL_TIM_DISABLE(htim);
 2939              		.loc 1 1270 5 is_stmt 1
 2940 0114 7B68     		ldr	r3, [r7, #4]
 2941 0116 1B68     		ldr	r3, [r3]
 2942 0118 1A6A     		ldr	r2, [r3, #32]
 2943 011a 41F21113 		movw	r3, #4369
 2944 011e 1340     		ands	r3, r3, r2
 2945 0120 002B     		cmp	r3, #0
 2946 0122 0FD1     		bne	.L195
 2947              		.loc 1 1270 5 is_stmt 0 discriminator 1
 2948 0124 7B68     		ldr	r3, [r7, #4]
 2949 0126 1B68     		ldr	r3, [r3]
 2950 0128 1A6A     		ldr	r2, [r3, #32]
 2951 012a 40F24443 		movw	r3, #1092
 2952 012e 1340     		ands	r3, r3, r2
 2953 0130 002B     		cmp	r3, #0
 2954 0132 07D1     		bne	.L195
 2955              		.loc 1 1270 5 discriminator 2
 2956 0134 7B68     		ldr	r3, [r7, #4]
 2957 0136 1B68     		ldr	r3, [r3]
 2958 0138 1A68     		ldr	r2, [r3]
 2959 013a 7B68     		ldr	r3, [r7, #4]
 2960 013c 1B68     		ldr	r3, [r3]
 2961 013e 22F00102 		bic	r2, r2, #1
 2962 0142 1A60     		str	r2, [r3]
 2963              	.L195:
1271:Drivers/STM32F1xx_HAL_Driver/Src/stm32f1xx_hal_tim.c **** 
1272:Drivers/STM32F1xx_HAL_Driver/Src/stm32f1xx_hal_tim.c ****     /* Set the TIM channel state */
1273:Drivers/STM32F1xx_HAL_Driver/Src/stm32f1xx_hal_tim.c ****     TIM_CHANNEL_STATE_SET(htim, Channel, HAL_TIM_CHANNEL_STATE_READY);
 2964              		.loc 1 1273 5 is_stmt 1
 2965 0144 3B68     		ldr	r3, [r7]
 2966 0146 002B     		cmp	r3, #0
 2967 0148 04D1     		bne	.L196
 2968              		.loc 1 1273 5 is_stmt 0 discriminator 1
 2969 014a 7B68     		ldr	r3, [r7, #4]
 2970 014c 0122     		movs	r2, #1
 2971 014e 83F83E20 		strb	r2, [r3, #62]
 2972 0152 13E0     		b	.L193
 2973              	.L196:
 2974              		.loc 1 1273 5 discriminator 2
 2975 0154 3B68     		ldr	r3, [r7]
 2976 0156 042B     		cmp	r3, #4
 2977 0158 04D1     		bne	.L197
ARM GAS  /tmp/ccW22bxd.s 			page 75


 2978              		.loc 1 1273 5 discriminator 3
 2979 015a 7B68     		ldr	r3, [r7, #4]
 2980 015c 0122     		movs	r2, #1
 2981 015e 83F83F20 		strb	r2, [r3, #63]
 2982 0162 0BE0     		b	.L193
 2983              	.L197:
 2984              		.loc 1 1273 5 discriminator 4
 2985 0164 3B68     		ldr	r3, [r7]
 2986 0166 082B     		cmp	r3, #8
 2987 0168 04D1     		bne	.L199
 2988              		.loc 1 1273 5 discriminator 6
 2989 016a 7B68     		ldr	r3, [r7, #4]
 2990 016c 0122     		movs	r2, #1
 2991 016e 83F84020 		strb	r2, [r3, #64]
 2992 0172 03E0     		b	.L193
 2993              	.L199:
 2994              		.loc 1 1273 5 discriminator 7
 2995 0174 7B68     		ldr	r3, [r7, #4]
 2996 0176 0122     		movs	r2, #1
 2997 0178 83F84120 		strb	r2, [r3, #65]
 2998              	.L193:
1274:Drivers/STM32F1xx_HAL_Driver/Src/stm32f1xx_hal_tim.c ****   }
1275:Drivers/STM32F1xx_HAL_Driver/Src/stm32f1xx_hal_tim.c **** 
1276:Drivers/STM32F1xx_HAL_Driver/Src/stm32f1xx_hal_tim.c ****   /* Return function status */
1277:Drivers/STM32F1xx_HAL_Driver/Src/stm32f1xx_hal_tim.c ****   return status;
 2999              		.loc 1 1277 10 is_stmt 1
 3000 017c FB7B     		ldrb	r3, [r7, #15]	@ zero_extendqisi2
1278:Drivers/STM32F1xx_HAL_Driver/Src/stm32f1xx_hal_tim.c **** }
 3001              		.loc 1 1278 1
 3002 017e 1846     		mov	r0, r3
 3003 0180 1037     		adds	r7, r7, #16
 3004              	.LCFI106:
 3005              		.cfi_def_cfa_offset 8
 3006 0182 BD46     		mov	sp, r7
 3007              	.LCFI107:
 3008              		.cfi_def_cfa_register 13
 3009              		@ sp needed
 3010 0184 80BD     		pop	{r7, pc}
 3011              	.L203:
 3012 0186 00BF     		.align	2
 3013              	.L202:
 3014 0188 002C0140 		.word	1073818624
 3015              		.cfi_endproc
 3016              	.LFE84:
 3018              		.section	.text.HAL_TIM_PWM_Init,"ax",%progbits
 3019              		.align	1
 3020              		.global	HAL_TIM_PWM_Init
 3021              		.syntax unified
 3022              		.thumb
 3023              		.thumb_func
 3025              	HAL_TIM_PWM_Init:
 3026              	.LFB85:
1279:Drivers/STM32F1xx_HAL_Driver/Src/stm32f1xx_hal_tim.c **** 
1280:Drivers/STM32F1xx_HAL_Driver/Src/stm32f1xx_hal_tim.c **** /**
1281:Drivers/STM32F1xx_HAL_Driver/Src/stm32f1xx_hal_tim.c ****   * @}
1282:Drivers/STM32F1xx_HAL_Driver/Src/stm32f1xx_hal_tim.c ****   */
1283:Drivers/STM32F1xx_HAL_Driver/Src/stm32f1xx_hal_tim.c **** 
ARM GAS  /tmp/ccW22bxd.s 			page 76


1284:Drivers/STM32F1xx_HAL_Driver/Src/stm32f1xx_hal_tim.c **** /** @defgroup TIM_Exported_Functions_Group3 TIM PWM functions
1285:Drivers/STM32F1xx_HAL_Driver/Src/stm32f1xx_hal_tim.c ****   *  @brief    TIM PWM functions
1286:Drivers/STM32F1xx_HAL_Driver/Src/stm32f1xx_hal_tim.c ****   *
1287:Drivers/STM32F1xx_HAL_Driver/Src/stm32f1xx_hal_tim.c **** @verbatim
1288:Drivers/STM32F1xx_HAL_Driver/Src/stm32f1xx_hal_tim.c ****   ==============================================================================
1289:Drivers/STM32F1xx_HAL_Driver/Src/stm32f1xx_hal_tim.c ****                           ##### TIM PWM functions #####
1290:Drivers/STM32F1xx_HAL_Driver/Src/stm32f1xx_hal_tim.c ****   ==============================================================================
1291:Drivers/STM32F1xx_HAL_Driver/Src/stm32f1xx_hal_tim.c ****   [..]
1292:Drivers/STM32F1xx_HAL_Driver/Src/stm32f1xx_hal_tim.c ****     This section provides functions allowing to:
1293:Drivers/STM32F1xx_HAL_Driver/Src/stm32f1xx_hal_tim.c ****     (+) Initialize and configure the TIM PWM.
1294:Drivers/STM32F1xx_HAL_Driver/Src/stm32f1xx_hal_tim.c ****     (+) De-initialize the TIM PWM.
1295:Drivers/STM32F1xx_HAL_Driver/Src/stm32f1xx_hal_tim.c ****     (+) Start the TIM PWM.
1296:Drivers/STM32F1xx_HAL_Driver/Src/stm32f1xx_hal_tim.c ****     (+) Stop the TIM PWM.
1297:Drivers/STM32F1xx_HAL_Driver/Src/stm32f1xx_hal_tim.c ****     (+) Start the TIM PWM and enable interrupt.
1298:Drivers/STM32F1xx_HAL_Driver/Src/stm32f1xx_hal_tim.c ****     (+) Stop the TIM PWM and disable interrupt.
1299:Drivers/STM32F1xx_HAL_Driver/Src/stm32f1xx_hal_tim.c ****     (+) Start the TIM PWM and enable DMA transfer.
1300:Drivers/STM32F1xx_HAL_Driver/Src/stm32f1xx_hal_tim.c ****     (+) Stop the TIM PWM and disable DMA transfer.
1301:Drivers/STM32F1xx_HAL_Driver/Src/stm32f1xx_hal_tim.c **** 
1302:Drivers/STM32F1xx_HAL_Driver/Src/stm32f1xx_hal_tim.c **** @endverbatim
1303:Drivers/STM32F1xx_HAL_Driver/Src/stm32f1xx_hal_tim.c ****   * @{
1304:Drivers/STM32F1xx_HAL_Driver/Src/stm32f1xx_hal_tim.c ****   */
1305:Drivers/STM32F1xx_HAL_Driver/Src/stm32f1xx_hal_tim.c **** /**
1306:Drivers/STM32F1xx_HAL_Driver/Src/stm32f1xx_hal_tim.c ****   * @brief  Initializes the TIM PWM Time Base according to the specified
1307:Drivers/STM32F1xx_HAL_Driver/Src/stm32f1xx_hal_tim.c ****   *         parameters in the TIM_HandleTypeDef and initializes the associated handle.
1308:Drivers/STM32F1xx_HAL_Driver/Src/stm32f1xx_hal_tim.c ****   * @note   Switching from Center Aligned counter mode to Edge counter mode (or reverse)
1309:Drivers/STM32F1xx_HAL_Driver/Src/stm32f1xx_hal_tim.c ****   *         requires a timer reset to avoid unexpected direction
1310:Drivers/STM32F1xx_HAL_Driver/Src/stm32f1xx_hal_tim.c ****   *         due to DIR bit readonly in center aligned mode.
1311:Drivers/STM32F1xx_HAL_Driver/Src/stm32f1xx_hal_tim.c ****   *         Ex: call @ref HAL_TIM_PWM_DeInit() before HAL_TIM_PWM_Init()
1312:Drivers/STM32F1xx_HAL_Driver/Src/stm32f1xx_hal_tim.c ****   * @param  htim TIM PWM handle
1313:Drivers/STM32F1xx_HAL_Driver/Src/stm32f1xx_hal_tim.c ****   * @retval HAL status
1314:Drivers/STM32F1xx_HAL_Driver/Src/stm32f1xx_hal_tim.c ****   */
1315:Drivers/STM32F1xx_HAL_Driver/Src/stm32f1xx_hal_tim.c **** HAL_StatusTypeDef HAL_TIM_PWM_Init(TIM_HandleTypeDef *htim)
1316:Drivers/STM32F1xx_HAL_Driver/Src/stm32f1xx_hal_tim.c **** {
 3027              		.loc 1 1316 1
 3028              		.cfi_startproc
 3029              		@ args = 0, pretend = 0, frame = 8
 3030              		@ frame_needed = 1, uses_anonymous_args = 0
 3031 0000 80B5     		push	{r7, lr}
 3032              	.LCFI108:
 3033              		.cfi_def_cfa_offset 8
 3034              		.cfi_offset 7, -8
 3035              		.cfi_offset 14, -4
 3036 0002 82B0     		sub	sp, sp, #8
 3037              	.LCFI109:
 3038              		.cfi_def_cfa_offset 16
 3039 0004 00AF     		add	r7, sp, #0
 3040              	.LCFI110:
 3041              		.cfi_def_cfa_register 7
 3042 0006 7860     		str	r0, [r7, #4]
1317:Drivers/STM32F1xx_HAL_Driver/Src/stm32f1xx_hal_tim.c ****   /* Check the TIM handle allocation */
1318:Drivers/STM32F1xx_HAL_Driver/Src/stm32f1xx_hal_tim.c ****   if (htim == NULL)
 3043              		.loc 1 1318 6
 3044 0008 7B68     		ldr	r3, [r7, #4]
 3045 000a 002B     		cmp	r3, #0
 3046 000c 01D1     		bne	.L205
1319:Drivers/STM32F1xx_HAL_Driver/Src/stm32f1xx_hal_tim.c ****   {
1320:Drivers/STM32F1xx_HAL_Driver/Src/stm32f1xx_hal_tim.c ****     return HAL_ERROR;
ARM GAS  /tmp/ccW22bxd.s 			page 77


 3047              		.loc 1 1320 12
 3048 000e 0123     		movs	r3, #1
 3049 0010 41E0     		b	.L206
 3050              	.L205:
1321:Drivers/STM32F1xx_HAL_Driver/Src/stm32f1xx_hal_tim.c ****   }
1322:Drivers/STM32F1xx_HAL_Driver/Src/stm32f1xx_hal_tim.c **** 
1323:Drivers/STM32F1xx_HAL_Driver/Src/stm32f1xx_hal_tim.c ****   /* Check the parameters */
1324:Drivers/STM32F1xx_HAL_Driver/Src/stm32f1xx_hal_tim.c ****   assert_param(IS_TIM_INSTANCE(htim->Instance));
1325:Drivers/STM32F1xx_HAL_Driver/Src/stm32f1xx_hal_tim.c ****   assert_param(IS_TIM_COUNTER_MODE(htim->Init.CounterMode));
1326:Drivers/STM32F1xx_HAL_Driver/Src/stm32f1xx_hal_tim.c ****   assert_param(IS_TIM_CLOCKDIVISION_DIV(htim->Init.ClockDivision));
1327:Drivers/STM32F1xx_HAL_Driver/Src/stm32f1xx_hal_tim.c ****   assert_param(IS_TIM_PERIOD(htim->Init.Period));
1328:Drivers/STM32F1xx_HAL_Driver/Src/stm32f1xx_hal_tim.c ****   assert_param(IS_TIM_AUTORELOAD_PRELOAD(htim->Init.AutoReloadPreload));
1329:Drivers/STM32F1xx_HAL_Driver/Src/stm32f1xx_hal_tim.c **** 
1330:Drivers/STM32F1xx_HAL_Driver/Src/stm32f1xx_hal_tim.c ****   if (htim->State == HAL_TIM_STATE_RESET)
 3051              		.loc 1 1330 11
 3052 0012 7B68     		ldr	r3, [r7, #4]
 3053 0014 93F83D30 		ldrb	r3, [r3, #61]
 3054 0018 DBB2     		uxtb	r3, r3
 3055              		.loc 1 1330 6
 3056 001a 002B     		cmp	r3, #0
 3057 001c 06D1     		bne	.L207
1331:Drivers/STM32F1xx_HAL_Driver/Src/stm32f1xx_hal_tim.c ****   {
1332:Drivers/STM32F1xx_HAL_Driver/Src/stm32f1xx_hal_tim.c ****     /* Allocate lock resource and initialize it */
1333:Drivers/STM32F1xx_HAL_Driver/Src/stm32f1xx_hal_tim.c ****     htim->Lock = HAL_UNLOCKED;
 3058              		.loc 1 1333 16
 3059 001e 7B68     		ldr	r3, [r7, #4]
 3060 0020 0022     		movs	r2, #0
 3061 0022 83F83C20 		strb	r2, [r3, #60]
1334:Drivers/STM32F1xx_HAL_Driver/Src/stm32f1xx_hal_tim.c **** 
1335:Drivers/STM32F1xx_HAL_Driver/Src/stm32f1xx_hal_tim.c **** #if (USE_HAL_TIM_REGISTER_CALLBACKS == 1)
1336:Drivers/STM32F1xx_HAL_Driver/Src/stm32f1xx_hal_tim.c ****     /* Reset interrupt callbacks to legacy weak callbacks */
1337:Drivers/STM32F1xx_HAL_Driver/Src/stm32f1xx_hal_tim.c ****     TIM_ResetCallback(htim);
1338:Drivers/STM32F1xx_HAL_Driver/Src/stm32f1xx_hal_tim.c **** 
1339:Drivers/STM32F1xx_HAL_Driver/Src/stm32f1xx_hal_tim.c ****     if (htim->PWM_MspInitCallback == NULL)
1340:Drivers/STM32F1xx_HAL_Driver/Src/stm32f1xx_hal_tim.c ****     {
1341:Drivers/STM32F1xx_HAL_Driver/Src/stm32f1xx_hal_tim.c ****       htim->PWM_MspInitCallback = HAL_TIM_PWM_MspInit;
1342:Drivers/STM32F1xx_HAL_Driver/Src/stm32f1xx_hal_tim.c ****     }
1343:Drivers/STM32F1xx_HAL_Driver/Src/stm32f1xx_hal_tim.c ****     /* Init the low level hardware : GPIO, CLOCK, NVIC */
1344:Drivers/STM32F1xx_HAL_Driver/Src/stm32f1xx_hal_tim.c ****     htim->PWM_MspInitCallback(htim);
1345:Drivers/STM32F1xx_HAL_Driver/Src/stm32f1xx_hal_tim.c **** #else
1346:Drivers/STM32F1xx_HAL_Driver/Src/stm32f1xx_hal_tim.c ****     /* Init the low level hardware : GPIO, CLOCK, NVIC and DMA */
1347:Drivers/STM32F1xx_HAL_Driver/Src/stm32f1xx_hal_tim.c ****     HAL_TIM_PWM_MspInit(htim);
 3062              		.loc 1 1347 5
 3063 0026 7868     		ldr	r0, [r7, #4]
 3064 0028 FFF7FEFF 		bl	HAL_TIM_PWM_MspInit
 3065              	.L207:
1348:Drivers/STM32F1xx_HAL_Driver/Src/stm32f1xx_hal_tim.c **** #endif /* USE_HAL_TIM_REGISTER_CALLBACKS */
1349:Drivers/STM32F1xx_HAL_Driver/Src/stm32f1xx_hal_tim.c ****   }
1350:Drivers/STM32F1xx_HAL_Driver/Src/stm32f1xx_hal_tim.c **** 
1351:Drivers/STM32F1xx_HAL_Driver/Src/stm32f1xx_hal_tim.c ****   /* Set the TIM state */
1352:Drivers/STM32F1xx_HAL_Driver/Src/stm32f1xx_hal_tim.c ****   htim->State = HAL_TIM_STATE_BUSY;
 3066              		.loc 1 1352 15
 3067 002c 7B68     		ldr	r3, [r7, #4]
 3068 002e 0222     		movs	r2, #2
 3069 0030 83F83D20 		strb	r2, [r3, #61]
1353:Drivers/STM32F1xx_HAL_Driver/Src/stm32f1xx_hal_tim.c **** 
1354:Drivers/STM32F1xx_HAL_Driver/Src/stm32f1xx_hal_tim.c ****   /* Init the base time for the PWM */
ARM GAS  /tmp/ccW22bxd.s 			page 78


1355:Drivers/STM32F1xx_HAL_Driver/Src/stm32f1xx_hal_tim.c ****   TIM_Base_SetConfig(htim->Instance, &htim->Init);
 3070              		.loc 1 1355 3
 3071 0034 7B68     		ldr	r3, [r7, #4]
 3072 0036 1A68     		ldr	r2, [r3]
 3073              		.loc 1 1355 38
 3074 0038 7B68     		ldr	r3, [r7, #4]
 3075 003a 0433     		adds	r3, r3, #4
 3076              		.loc 1 1355 3
 3077 003c 1946     		mov	r1, r3
 3078 003e 1046     		mov	r0, r2
 3079 0040 FFF7FEFF 		bl	TIM_Base_SetConfig
1356:Drivers/STM32F1xx_HAL_Driver/Src/stm32f1xx_hal_tim.c **** 
1357:Drivers/STM32F1xx_HAL_Driver/Src/stm32f1xx_hal_tim.c ****   /* Initialize the DMA burst operation state */
1358:Drivers/STM32F1xx_HAL_Driver/Src/stm32f1xx_hal_tim.c ****   htim->DMABurstState = HAL_DMA_BURST_STATE_READY;
 3080              		.loc 1 1358 23
 3081 0044 7B68     		ldr	r3, [r7, #4]
 3082 0046 0122     		movs	r2, #1
 3083 0048 83F84620 		strb	r2, [r3, #70]
1359:Drivers/STM32F1xx_HAL_Driver/Src/stm32f1xx_hal_tim.c **** 
1360:Drivers/STM32F1xx_HAL_Driver/Src/stm32f1xx_hal_tim.c ****   /* Initialize the TIM channels state */
1361:Drivers/STM32F1xx_HAL_Driver/Src/stm32f1xx_hal_tim.c ****   TIM_CHANNEL_STATE_SET_ALL(htim, HAL_TIM_CHANNEL_STATE_READY);
 3084              		.loc 1 1361 3
 3085 004c 7B68     		ldr	r3, [r7, #4]
 3086 004e 0122     		movs	r2, #1
 3087 0050 83F83E20 		strb	r2, [r3, #62]
 3088 0054 7B68     		ldr	r3, [r7, #4]
 3089 0056 0122     		movs	r2, #1
 3090 0058 83F83F20 		strb	r2, [r3, #63]
 3091 005c 7B68     		ldr	r3, [r7, #4]
 3092 005e 0122     		movs	r2, #1
 3093 0060 83F84020 		strb	r2, [r3, #64]
 3094 0064 7B68     		ldr	r3, [r7, #4]
 3095 0066 0122     		movs	r2, #1
 3096 0068 83F84120 		strb	r2, [r3, #65]
1362:Drivers/STM32F1xx_HAL_Driver/Src/stm32f1xx_hal_tim.c ****   TIM_CHANNEL_N_STATE_SET_ALL(htim, HAL_TIM_CHANNEL_STATE_READY);
 3097              		.loc 1 1362 3
 3098 006c 7B68     		ldr	r3, [r7, #4]
 3099 006e 0122     		movs	r2, #1
 3100 0070 83F84220 		strb	r2, [r3, #66]
 3101 0074 7B68     		ldr	r3, [r7, #4]
 3102 0076 0122     		movs	r2, #1
 3103 0078 83F84320 		strb	r2, [r3, #67]
 3104 007c 7B68     		ldr	r3, [r7, #4]
 3105 007e 0122     		movs	r2, #1
 3106 0080 83F84420 		strb	r2, [r3, #68]
 3107 0084 7B68     		ldr	r3, [r7, #4]
 3108 0086 0122     		movs	r2, #1
 3109 0088 83F84520 		strb	r2, [r3, #69]
1363:Drivers/STM32F1xx_HAL_Driver/Src/stm32f1xx_hal_tim.c **** 
1364:Drivers/STM32F1xx_HAL_Driver/Src/stm32f1xx_hal_tim.c ****   /* Initialize the TIM state*/
1365:Drivers/STM32F1xx_HAL_Driver/Src/stm32f1xx_hal_tim.c ****   htim->State = HAL_TIM_STATE_READY;
 3110              		.loc 1 1365 15
 3111 008c 7B68     		ldr	r3, [r7, #4]
 3112 008e 0122     		movs	r2, #1
 3113 0090 83F83D20 		strb	r2, [r3, #61]
1366:Drivers/STM32F1xx_HAL_Driver/Src/stm32f1xx_hal_tim.c **** 
1367:Drivers/STM32F1xx_HAL_Driver/Src/stm32f1xx_hal_tim.c ****   return HAL_OK;
ARM GAS  /tmp/ccW22bxd.s 			page 79


 3114              		.loc 1 1367 10
 3115 0094 0023     		movs	r3, #0
 3116              	.L206:
1368:Drivers/STM32F1xx_HAL_Driver/Src/stm32f1xx_hal_tim.c **** }
 3117              		.loc 1 1368 1
 3118 0096 1846     		mov	r0, r3
 3119 0098 0837     		adds	r7, r7, #8
 3120              	.LCFI111:
 3121              		.cfi_def_cfa_offset 8
 3122 009a BD46     		mov	sp, r7
 3123              	.LCFI112:
 3124              		.cfi_def_cfa_register 13
 3125              		@ sp needed
 3126 009c 80BD     		pop	{r7, pc}
 3127              		.cfi_endproc
 3128              	.LFE85:
 3130              		.section	.text.HAL_TIM_PWM_DeInit,"ax",%progbits
 3131              		.align	1
 3132              		.global	HAL_TIM_PWM_DeInit
 3133              		.syntax unified
 3134              		.thumb
 3135              		.thumb_func
 3137              	HAL_TIM_PWM_DeInit:
 3138              	.LFB86:
1369:Drivers/STM32F1xx_HAL_Driver/Src/stm32f1xx_hal_tim.c **** 
1370:Drivers/STM32F1xx_HAL_Driver/Src/stm32f1xx_hal_tim.c **** /**
1371:Drivers/STM32F1xx_HAL_Driver/Src/stm32f1xx_hal_tim.c ****   * @brief  DeInitializes the TIM peripheral
1372:Drivers/STM32F1xx_HAL_Driver/Src/stm32f1xx_hal_tim.c ****   * @param  htim TIM PWM handle
1373:Drivers/STM32F1xx_HAL_Driver/Src/stm32f1xx_hal_tim.c ****   * @retval HAL status
1374:Drivers/STM32F1xx_HAL_Driver/Src/stm32f1xx_hal_tim.c ****   */
1375:Drivers/STM32F1xx_HAL_Driver/Src/stm32f1xx_hal_tim.c **** HAL_StatusTypeDef HAL_TIM_PWM_DeInit(TIM_HandleTypeDef *htim)
1376:Drivers/STM32F1xx_HAL_Driver/Src/stm32f1xx_hal_tim.c **** {
 3139              		.loc 1 1376 1
 3140              		.cfi_startproc
 3141              		@ args = 0, pretend = 0, frame = 8
 3142              		@ frame_needed = 1, uses_anonymous_args = 0
 3143 0000 80B5     		push	{r7, lr}
 3144              	.LCFI113:
 3145              		.cfi_def_cfa_offset 8
 3146              		.cfi_offset 7, -8
 3147              		.cfi_offset 14, -4
 3148 0002 82B0     		sub	sp, sp, #8
 3149              	.LCFI114:
 3150              		.cfi_def_cfa_offset 16
 3151 0004 00AF     		add	r7, sp, #0
 3152              	.LCFI115:
 3153              		.cfi_def_cfa_register 7
 3154 0006 7860     		str	r0, [r7, #4]
1377:Drivers/STM32F1xx_HAL_Driver/Src/stm32f1xx_hal_tim.c ****   /* Check the parameters */
1378:Drivers/STM32F1xx_HAL_Driver/Src/stm32f1xx_hal_tim.c ****   assert_param(IS_TIM_INSTANCE(htim->Instance));
1379:Drivers/STM32F1xx_HAL_Driver/Src/stm32f1xx_hal_tim.c **** 
1380:Drivers/STM32F1xx_HAL_Driver/Src/stm32f1xx_hal_tim.c ****   htim->State = HAL_TIM_STATE_BUSY;
 3155              		.loc 1 1380 15
 3156 0008 7B68     		ldr	r3, [r7, #4]
 3157 000a 0222     		movs	r2, #2
 3158 000c 83F83D20 		strb	r2, [r3, #61]
1381:Drivers/STM32F1xx_HAL_Driver/Src/stm32f1xx_hal_tim.c **** 
ARM GAS  /tmp/ccW22bxd.s 			page 80


1382:Drivers/STM32F1xx_HAL_Driver/Src/stm32f1xx_hal_tim.c ****   /* Disable the TIM Peripheral Clock */
1383:Drivers/STM32F1xx_HAL_Driver/Src/stm32f1xx_hal_tim.c ****   __HAL_TIM_DISABLE(htim);
 3159              		.loc 1 1383 3
 3160 0010 7B68     		ldr	r3, [r7, #4]
 3161 0012 1B68     		ldr	r3, [r3]
 3162 0014 1A6A     		ldr	r2, [r3, #32]
 3163 0016 41F21113 		movw	r3, #4369
 3164 001a 1340     		ands	r3, r3, r2
 3165 001c 002B     		cmp	r3, #0
 3166 001e 0FD1     		bne	.L209
